
========================================================================

** ELF Header Information

    File Name: .\obj\GPIO_OutputInput.axf

    Machine class: ELFCLASS32 (32-bit)
    Data encoding: ELFDATA2LSB (Little endian)
    Header version: EV_CURRENT (Current version)
    Operating System ABI: none
    ABI Version: 0
    File Type: ET_EXEC (Executable) (2)
    Machine: EM_ARM (ARM)

    Image Entry point: 0x00000169
    Flags: EF_ARM_HASENTRY + EF_ARM_ABI_FLOAT_SOFT (0x05000202)

    ARM ELF revision: 5 (ABI version 2)

    Conforms to Soft float procedure-call standard

    Built with
    Component: ARM Compiler 5.06 update 6 (build 750) Tool: armasm [4d35ec]
    Component: ARM Compiler 5.06 update 6 (build 750) Tool: armlink [4d35ed]

    Header size: 52 bytes (0x34)
    Program header entry size: 32 bytes (0x20)
    Section header entry size: 40 bytes (0x28)

    Program header entries: 1
    Section header entries: 16

    Program header offset: 624024 (0x00098598)
    Section header offset: 624056 (0x000985b8)

    Section header string table index: 15

========================================================================

** Program header #0 (PT_LOAD) [PF_X + PF_W + PF_R + PF_ARM_ENTRY]
    Size : 23432 bytes (16984 bytes in file)
    Virtual address: 0x00000000 (Alignment 8)


========================================================================

** Section #1 'ER_RO' (SHT_PROGBITS) [SHF_ALLOC + SHF_EXECINSTR]
    Size   : 16856 bytes (alignment 4)
    Address: 0x00000000

    $d.realdata
    RESET
    __Vectors
        0x00000000:    200019b0    ...     DCD    536877488
        0x00000004:    00000169    i...    DCD    361
        0x00000008:    00000171    q...    DCD    369
        0x0000000c:    000000d5    ....    DCD    213
        0x00000010:    00000000    ....    DCD    0
        0x00000014:    00000000    ....    DCD    0
        0x00000018:    00000000    ....    DCD    0
        0x0000001c:    00000000    ....    DCD    0
        0x00000020:    00000000    ....    DCD    0
        0x00000024:    00000000    ....    DCD    0
        0x00000028:    00000000    ....    DCD    0
        0x0000002c:    00003aa3    .:..    DCD    15011
        0x00000030:    00000000    ....    DCD    0
        0x00000034:    00000000    ....    DCD    0
        0x00000038:    00000127    '...    DCD    295
        0x0000003c:    00003b61    a;..    DCD    15201
        0x00000040:    0000017b    {...    DCD    379
        0x00000044:    0000017b    {...    DCD    379
        0x00000048:    0000017b    {...    DCD    379
        0x0000004c:    0000017b    {...    DCD    379
        0x00000050:    0000017b    {...    DCD    379
        0x00000054:    0000017b    {...    DCD    379
        0x00000058:    0000017b    {...    DCD    379
        0x0000005c:    0000017b    {...    DCD    379
        0x00000060:    0000017b    {...    DCD    379
        0x00000064:    0000017b    {...    DCD    379
        0x00000068:    0000017b    {...    DCD    379
        0x0000006c:    0000017b    {...    DCD    379
        0x00000070:    0000017b    {...    DCD    379
        0x00000074:    0000017b    {...    DCD    379
        0x00000078:    0000017b    {...    DCD    379
        0x0000007c:    0000017b    {...    DCD    379
        0x00000080:    0000017b    {...    DCD    379
        0x00000084:    0000017b    {...    DCD    379
        0x00000088:    0000017b    {...    DCD    379
        0x0000008c:    0000017b    {...    DCD    379
        0x00000090:    0000017b    {...    DCD    379
        0x00000094:    0000017b    {...    DCD    379
        0x00000098:    0000017b    {...    DCD    379
        0x0000009c:    0000017b    {...    DCD    379
        0x000000a0:    0000017b    {...    DCD    379
        0x000000a4:    0000017b    {...    DCD    379
        0x000000a8:    0000017b    {...    DCD    379
        0x000000ac:    0000017b    {...    DCD    379
        0x000000b0:    0000017b    {...    DCD    379
        0x000000b4:    0000017b    {...    DCD    379
        0x000000b8:    0000017b    {...    DCD    379
        0x000000bc:    0000017b    {...    DCD    379
    $t
    .ARM.Collect$$$$00000000
    .ARM.Collect$$$$00000001
    __main
    _main_stk
        0x000000c0:    4803        .H      LDR      r0,__lit__00000000 ; [0xd0] = 0x200019b0
        0x000000c2:    4685        .F      MOV      sp,r0
    .ARM.Collect$$$$00000004
    _main_scatterload
        0x000000c4:    f003fe68    ..h.    BL       __scatterload ; 0x3d98
    .ARM.Collect$$$$00000008
    .ARM.Collect$$$$0000000A
    .ARM.Collect$$$$0000000B
    __main_after_scatterload
    _main_clock
    _main_cpp_init
    _main_init
        0x000000c8:    4800        .H      LDR      r0,[pc,#0] ; [0xcc] = 0x30d
        0x000000ca:    4700        .G      BX       r0
    $d
        0x000000cc:    0000030d    ....    DCD    781
    .ARM.Collect$$$$00002712
    __lit__00000000
    .ARM.Collect$$$$0000000D
    .ARM.Collect$$$$0000000F
    __rt_final_cpp
    __rt_final_exit
        0x000000d0:    200019b0    ...     DCD    536877488
    $t
    .emb_text
    HardFault_Handler
        0x000000d4:    2004        .       MOVS     r0,#4
        0x000000d6:    4671        qF      MOV      r1,lr
        0x000000d8:    4208        .B      TST      r0,r1
        0x000000da:    d002        ..      BEQ      0xe2 ; HardFault_Handler + 14
        0x000000dc:    f3ef8009    ....    MRS      r0,PSP
        0x000000e0:    e001        ..      B        0xe6 ; HardFault_Handler + 18
        0x000000e2:    f3ef8008    ....    MRS      r0,MSP
        0x000000e6:    4671        qF      MOV      r1,lr
        0x000000e8:    4a00        .J      LDR      r2,[pc,#0] ; [0xec] = 0x4db
        0x000000ea:    4710        .G      BX       r2
    $d
        0x000000ec:    000004db    ....    DCD    1243
    $t
    .emb_text
    __asm___6_port_c_39a90d8d__prvPortStartFirstTask
        0x000000f0:    4b08        .K      LDR      r3,[pc,#32] ; [0x114] = 0x20000014
        0x000000f2:    6819        .h      LDR      r1,[r3,#0]
        0x000000f4:    6808        .h      LDR      r0,[r1,#0]
        0x000000f6:    3020         0      ADDS     r0,r0,#0x20
        0x000000f8:    f3808809    ....    MSR      PSP,r0
        0x000000fc:    2002        .       MOVS     r0,#2
        0x000000fe:    f3808814    ....    MSR      CONTROL,r0
        0x00000102:    f3bf8f6f    ..o.    ISB      
        0x00000106:    bc3f        ?.      POP      {r0-r5}
        0x00000108:    46ae        .F      MOV      lr,r5
        0x0000010a:    bc08        ..      POP      {r3}
        0x0000010c:    bc04        ..      POP      {r2}
        0x0000010e:    b662        b.      CPSIE    i
        0x00000110:    4718        .G      BX       r3
    $d
        0x00000112:    0000        ..      DCW    0
        0x00000114:    20000014    ...     DCD    536870932
    $t
    ulSetInterruptMaskFromISR
        0x00000118:    f3ef8010    ....    MRS      r0,PRIMASK
        0x0000011c:    b672        r.      CPSID    i
        0x0000011e:    4770        pG      BX       lr
    vClearInterruptMaskFromISR
        0x00000120:    f3808810    ....    MSR      PRIMASK,r0
        0x00000124:    4770        pG      BX       lr
    PendSV_Handler
        0x00000126:    f3ef8009    ....    MRS      r0,PSP
        0x0000012a:    4b0e        .K      LDR      r3,[pc,#56] ; [0x164] = 0x20000014
        0x0000012c:    681a        .h      LDR      r2,[r3,#0]
        0x0000012e:    3820         8      SUBS     r0,r0,#0x20
        0x00000130:    6010        .`      STR      r0,[r2,#0]
        0x00000132:    c0f0        ..      STM      r0!,{r4-r7}
        0x00000134:    4644        DF      MOV      r4,r8
        0x00000136:    464d        MF      MOV      r5,r9
        0x00000138:    4656        VF      MOV      r6,r10
        0x0000013a:    465f        _F      MOV      r7,r11
        0x0000013c:    c0f0        ..      STM      r0!,{r4-r7}
        0x0000013e:    b508        ..      PUSH     {r3,lr}
        0x00000140:    b672        r.      CPSID    i
        0x00000142:    f001fc14    ....    BL       vTaskSwitchContext ; 0x196e
        0x00000146:    b662        b.      CPSIE    i
        0x00000148:    bc0c        ..      POP      {r2,r3}
        0x0000014a:    6811        .h      LDR      r1,[r2,#0]
        0x0000014c:    6808        .h      LDR      r0,[r1,#0]
        0x0000014e:    3010        .0      ADDS     r0,r0,#0x10
        0x00000150:    c8f0        ..      LDM      r0!,{r4-r7}
        0x00000152:    46a0        .F      MOV      r8,r4
        0x00000154:    46a9        .F      MOV      r9,r5
        0x00000156:    46b2        .F      MOV      r10,r6
        0x00000158:    46bb        .F      MOV      r11,r7
        0x0000015a:    f3808809    ....    MSR      PSP,r0
        0x0000015e:    3820         8      SUBS     r0,r0,#0x20
        0x00000160:    c8f0        ..      LDM      r0!,{r4-r7}
        0x00000162:    4718        .G      BX       r3
    $d
        0x00000164:    20000014    ...     DCD    536870932
    $t
    .text
    Reset_Handler
        0x00000168:    4804        .H      LDR      r0,[pc,#16] ; [0x17c] = 0x1d1
        0x0000016a:    4780        .G      BLX      r0
        0x0000016c:    4804        .H      LDR      r0,[pc,#16] ; [0x180] = 0xc1
        0x0000016e:    4700        .G      BX       r0
    NMI_Handler
        0x00000170:    e7fe        ..      B        NMI_Handler ; 0x170
        0x00000172:    e7fe        ..      B        0x172 ; NMI_Handler + 2
        0x00000174:    e7fe        ..      B        0x174 ; NMI_Handler + 4
        0x00000176:    e7fe        ..      B        0x176 ; NMI_Handler + 6
        0x00000178:    e7fe        ..      B        0x178 ; NMI_Handler + 8
    Default_Handler
    ACMP01_IRQHandler
    ADC_IRQHandler
    BOD_IRQHandler
    CLKDIRC_IRQHandler
    EINT024_IRQHandler
    EINT135_IRQHandler
    GPAB_IRQHandler
    GPCDEF_IRQHandler
    I2C0_IRQHandler
    I2C1_IRQHandler
    PDMA_IRQHandler
    PWM0_IRQHandler
    PWM1_IRQHandler
    PWRWU_IRQHandler
    RTC_IRQHandler
    SC01_IRQHandler
    SPI0_IRQHandler
    SPI1_IRQHandler
    TMR0_IRQHandler
    TMR1_IRQHandler
    TMR2_IRQHandler
    TMR3_IRQHandler
    UART02_IRQHandler
    UART1_IRQHandler
    USBD_IRQHandler
    USCI_IRQHandler
    WDT_IRQHandler
        0x0000017a:    e7fe        ..      B        Default_Handler ; 0x17a
    $d
        0x0000017c:    000001d1    ....    DCD    465
        0x00000180:    000000c1    ....    DCD    193
    $t
    .text
    SystemCoreClockUpdate
        0x00000184:    b570        p.      PUSH     {r4-r6,lr}
        0x00000186:    482f        /H      LDR      r0,[pc,#188] ; [0x244] = 0x50000200
        0x00000188:    6900        .i      LDR      r0,[r0,#0x10]
        0x0000018a:    0745        E.      LSLS     r5,r0,#29
        0x0000018c:    0f6d        m.      LSRS     r5,r5,#29
        0x0000018e:    f000f820    .. .    BL       CLK_GetPLLClockFreq ; 0x1d2
        0x00000192:    492d        -I      LDR      r1,[pc,#180] ; [0x248] = 0x20000008
        0x00000194:    6008        .`      STR      r0,[r1,#0]
        0x00000196:    2d02        .-      CMP      r5,#2
        0x00000198:    d003        ..      BEQ      0x1a2 ; SystemCoreClockUpdate + 30
        0x0000019a:    00a8        ..      LSLS     r0,r5,#2
        0x0000019c:    492b        +I      LDR      r1,[pc,#172] ; [0x24c] = 0x4138
        0x0000019e:    580c        .X      LDR      r4,[r1,r0]
        0x000001a0:    e001        ..      B        0x1a6 ; SystemCoreClockUpdate + 34
        0x000001a2:    4829        )H      LDR      r0,[pc,#164] ; [0x248] = 0x20000008
        0x000001a4:    6804        .h      LDR      r4,[r0,#0]
        0x000001a6:    4827        'H      LDR      r0,[pc,#156] ; [0x244] = 0x50000200
        0x000001a8:    6980        .i      LDR      r0,[r0,#0x18]
        0x000001aa:    0700        ..      LSLS     r0,r0,#28
        0x000001ac:    0f00        ..      LSRS     r0,r0,#28
        0x000001ae:    1c46        F.      ADDS     r6,r0,#1
        0x000001b0:    4631        1F      MOV      r1,r6
        0x000001b2:    4620         F      MOV      r0,r4
        0x000001b4:    f003fd86    ....    BL       __aeabi_uidiv ; 0x3cc4
        0x000001b8:    4925        %I      LDR      r1,[pc,#148] ; [0x250] = 0x20000000
        0x000001ba:    6008        .`      STR      r0,[r1,#0]
        0x000001bc:    4925        %I      LDR      r1,[pc,#148] ; [0x254] = 0xf4240
        0x000001be:    4824        $H      LDR      r0,[pc,#144] ; [0x250] = 0x20000000
        0x000001c0:    6800        .h      LDR      r0,[r0,#0]
        0x000001c2:    104a        J.      ASRS     r2,r1,#1
        0x000001c4:    1880        ..      ADDS     r0,r0,r2
        0x000001c6:    f003fd7d    ..}.    BL       __aeabi_uidiv ; 0x3cc4
        0x000001ca:    4923        #I      LDR      r1,[pc,#140] ; [0x258] = 0x20000004
        0x000001cc:    6008        .`      STR      r0,[r1,#0]
        0x000001ce:    bd70        p.      POP      {r4-r6,pc}
    SystemInit
        0x000001d0:    4770        pG      BX       lr
    CLK_GetPLLClockFreq
        0x000001d2:    b5fe        ..      PUSH     {r1-r7,lr}
        0x000001d4:    2000        .       MOVS     r0,#0
        0x000001d6:    9002        ..      STR      r0,[sp,#8]
        0x000001d8:    a020         .      ADR      r0,{pc}+0x84 ; 0x25c
        0x000001da:    6800        .h      LDR      r0,[r0,#0]
        0x000001dc:    9000        ..      STR      r0,[sp,#0]
        0x000001de:    4819        .H      LDR      r0,[pc,#100] ; [0x244] = 0x50000200
        0x000001e0:    6a04        .j      LDR      r4,[r0,#0x20]
        0x000001e2:    1300        ..      ASRS     r0,r0,#12
        0x000001e4:    4020         @      ANDS     r0,r0,r4
        0x000001e6:    2800        .(      CMP      r0,#0
        0x000001e8:    d001        ..      BEQ      0x1ee ; CLK_GetPLLClockFreq + 28
        0x000001ea:    2000        .       MOVS     r0,#0
        0x000001ec:    bdfe        ..      POP      {r1-r7,pc}
        0x000001ee:    2001        .       MOVS     r0,#1
        0x000001f0:    04c0        ..      LSLS     r0,r0,#19
        0x000001f2:    4020         @      ANDS     r0,r0,r4
        0x000001f4:    2800        .(      CMP      r0,#0
        0x000001f6:    d001        ..      BEQ      0x1fc ; CLK_GetPLLClockFreq + 42
        0x000001f8:    4d19        .M      LDR      r5,[pc,#100] ; [0x260] = 0x1518000
        0x000001fa:    e000        ..      B        0x1fe ; CLK_GetPLLClockFreq + 44
        0x000001fc:    4d19        .M      LDR      r5,[pc,#100] ; [0x264] = 0xb71b00
        0x000001fe:    2001        .       MOVS     r0,#1
        0x00000200:    0440        @.      LSLS     r0,r0,#17
        0x00000202:    4020         @      ANDS     r0,r0,r4
        0x00000204:    2800        .(      CMP      r0,#0
        0x00000206:    d001        ..      BEQ      0x20c ; CLK_GetPLLClockFreq + 58
        0x00000208:    4628        (F      MOV      r0,r5
        0x0000020a:    e7ef        ..      B        0x1ec ; CLK_GetPLLClockFreq + 26
        0x0000020c:    2003        .       MOVS     r0,#3
        0x0000020e:    0380        ..      LSLS     r0,r0,#14
        0x00000210:    4020         @      ANDS     r0,r0,r4
        0x00000212:    0b80        ..      LSRS     r0,r0,#14
        0x00000214:    4669        iF      MOV      r1,sp
        0x00000216:    5c0a        .\      LDRB     r2,[r1,r0]
        0x00000218:    9201        ..      STR      r2,[sp,#4]
        0x0000021a:    05e0        ..      LSLS     r0,r4,#23
        0x0000021c:    0dc0        ..      LSRS     r0,r0,#23
        0x0000021e:    1c86        ..      ADDS     r6,r0,#2
        0x00000220:    201f        .       MOVS     r0,#0x1f
        0x00000222:    0240        @.      LSLS     r0,r0,#9
        0x00000224:    4020         @      ANDS     r0,r0,r4
        0x00000226:    0a40        @.      LSRS     r0,r0,#9
        0x00000228:    1c87        ..      ADDS     r7,r0,#2
        0x0000022a:    9a01        ..      LDR      r2,[sp,#4]
        0x0000022c:    437a        zC      MULS     r2,r7,r2
        0x0000022e:    4611        .F      MOV      r1,r2
        0x00000230:    08aa        ..      LSRS     r2,r5,#2
        0x00000232:    4372        rC      MULS     r2,r6,r2
        0x00000234:    4610        .F      MOV      r0,r2
        0x00000236:    f003fd45    ..E.    BL       __aeabi_uidiv ; 0x3cc4
        0x0000023a:    0080        ..      LSLS     r0,r0,#2
        0x0000023c:    9002        ..      STR      r0,[sp,#8]
        0x0000023e:    9802        ..      LDR      r0,[sp,#8]
        0x00000240:    e7d4        ..      B        0x1ec ; CLK_GetPLLClockFreq + 26
    $d
        0x00000242:    0000        ..      DCW    0
        0x00000244:    50000200    ...P    DCD    1342177792
        0x00000248:    20000008    ...     DCD    536870920
        0x0000024c:    00004138    8A..    DCD    16696
        0x00000250:    20000000    ...     DCD    536870912
        0x00000254:    000f4240    @B..    DCD    1000000
        0x00000258:    20000004    ...     DCD    536870916
        0x0000025c:    04020201    ....    DCD    67240449
        0x00000260:    01518000    ..Q.    DCD    22118400
        0x00000264:    00b71b00    ....    DCD    12000000
    $t
    .text
    SYS_Init
        0x00000268:    b510        ..      PUSH     {r4,lr}
        0x0000026a:    2004        .       MOVS     r0,#4
        0x0000026c:    f000fc16    ....    BL       CLK_EnableXtalRC ; 0xa9c
        0x00000270:    2010        .       MOVS     r0,#0x10
        0x00000272:    f000fa73    ..s.    BL       CLK_WaitClockReady ; 0x75c
        0x00000276:    2100        .!      MOVS     r1,#0
        0x00000278:    2007        .       MOVS     r0,#7
        0x0000027a:    f000fa7f    ....    BL       CLK_SetHCLK ; 0x77c
        0x0000027e:    2001        .       MOVS     r0,#1
        0x00000280:    f000fc0c    ....    BL       CLK_EnableXtalRC ; 0xa9c
        0x00000284:    2001        .       MOVS     r0,#1
        0x00000286:    f000fa69    ..i.    BL       CLK_WaitClockReady ; 0x75c
        0x0000028a:    483d        =H      LDR      r0,[pc,#244] ; [0x380] = 0x44aa200
        0x0000028c:    f000fb56    ..V.    BL       CLK_SetCoreClock ; 0x93c
        0x00000290:    483c        <H      LDR      r0,[pc,#240] ; [0x384] = 0x57803d10
        0x00000292:    f000fc0f    ....    BL       CLK_EnableModuleClock ; 0xab4
        0x00000296:    2200        ."      MOVS     r2,#0
        0x00000298:    4611        .F      MOV      r1,r2
        0x0000029a:    483a        :H      LDR      r0,[pc,#232] ; [0x384] = 0x57803d10
        0x0000029c:    f000fb96    ....    BL       CLK_SetModuleClock ; 0x9cc
        0x000002a0:    4839        9H      LDR      r0,[pc,#228] ; [0x388] = 0x50000040
        0x000002a2:    6880        .h      LDR      r0,[r0,#8]
        0x000002a4:    0900        ..      LSRS     r0,r0,#4
        0x000002a6:    0100        ..      LSLS     r0,r0,#4
        0x000002a8:    1cc0        ..      ADDS     r0,r0,#3
        0x000002aa:    4937        7I      LDR      r1,[pc,#220] ; [0x388] = 0x50000040
        0x000002ac:    6088        .`      STR      r0,[r1,#8]
        0x000002ae:    4608        .F      MOV      r0,r1
        0x000002b0:    6880        .h      LDR      r0,[r0,#8]
        0x000002b2:    21f0        .!      MOVS     r1,#0xf0
        0x000002b4:    4388        .C      BICS     r0,r0,r1
        0x000002b6:    3030        00      ADDS     r0,r0,#0x30
        0x000002b8:    4933        3I      LDR      r1,[pc,#204] ; [0x388] = 0x50000040
        0x000002ba:    6088        .`      STR      r0,[r1,#8]
        0x000002bc:    bd10        ..      POP      {r4,pc}
    UART0_Init
        0x000002be:    b510        ..      PUSH     {r4,lr}
        0x000002c0:    4832        2H      LDR      r0,[pc,#200] ; [0x38c] = 0x4000010
        0x000002c2:    f000fcc3    ....    BL       SYS_ResetModule ; 0xc4c
        0x000002c6:    21e1        .!      MOVS     r1,#0xe1
        0x000002c8:    0249        I.      LSLS     r1,r1,#9
        0x000002ca:    4831        1H      LDR      r0,[pc,#196] ; [0x390] = 0x40050000
        0x000002cc:    f000fda2    ....    BL       UART_Open ; 0xe14
        0x000002d0:    bd10        ..      POP      {r4,pc}
    vStartLEDFlashTasks
        0x000002d2:    2201        ."      MOVS     r2,#1
        0x000002d4:    0251        Q.      LSLS     r1,r2,#9
        0x000002d6:    482f        /H      LDR      r0,[pc,#188] ; [0x394] = 0x50004080
        0x000002d8:    f000f996    ....    BL       GPIO_SetMode ; 0x608
        0x000002dc:    a02e        ..      ADR      r0,{pc}+0xbc ; 0x398
        0x000002de:    f003fd8f    ....    BL       __0printf$5 ; 0x3e00
        0x000002e2:    a03b        ;.      ADR      r0,{pc}+0xee ; 0x3d0
        0x000002e4:    f003fd8c    ....    BL       __0printf$5 ; 0x3e00
        0x000002e8:    a042        B.      ADR      r0,{pc}+0x10c ; 0x3f4
        0x000002ea:    f003fd89    ....    BL       __0printf$5 ; 0x3e00
        0x000002ee:    e00c        ..      B        0x30a ; vStartLEDFlashTasks + 56
        0x000002f0:    484e        NH      LDR      r0,[pc,#312] ; [0x42c] = 0x50004280
        0x000002f2:    6a40        @j      LDR      r0,[r0,#0x24]
        0x000002f4:    2101        .!      MOVS     r1,#1
        0x000002f6:    4048        H@      EORS     r0,r0,r1
        0x000002f8:    494c        LI      LDR      r1,[pc,#304] ; [0x42c] = 0x50004280
        0x000002fa:    6248        Hb      STR      r0,[r1,#0x24]
        0x000002fc:    a04c        L.      ADR      r0,{pc}+0x134 ; 0x430
        0x000002fe:    f003fd7f    ....    BL       __0printf$5 ; 0x3e00
        0x00000302:    207d        }       MOVS     r0,#0x7d
        0x00000304:    00c0        ..      LSLS     r0,r0,#3
        0x00000306:    f001fa4b    ..K.    BL       vTaskDelay ; 0x17a0
        0x0000030a:    e7f1        ..      B        0x2f0 ; vStartLEDFlashTasks + 30
    main
        0x0000030c:    b51c        ..      PUSH     {r2-r4,lr}
        0x0000030e:    bf00        ..      NOP      
        0x00000310:    bf00        ..      NOP      
        0x00000312:    bf00        ..      NOP      
        0x00000314:    2059        Y       MOVS     r0,#0x59
        0x00000316:    491c        .I      LDR      r1,[pc,#112] ; [0x388] = 0x50000040
        0x00000318:    31c0        .1      ADDS     r1,r1,#0xc0
        0x0000031a:    6008        .`      STR      r0,[r1,#0]
        0x0000031c:    2016        .       MOVS     r0,#0x16
        0x0000031e:    6008        .`      STR      r0,[r1,#0]
        0x00000320:    2088        .       MOVS     r0,#0x88
        0x00000322:    6008        .`      STR      r0,[r1,#0]
        0x00000324:    4608        .F      MOV      r0,r1
        0x00000326:    6800        .h      LDR      r0,[r0,#0]
        0x00000328:    2800        .(      CMP      r0,#0
        0x0000032a:    d0f3        ..      BEQ      0x314 ; main + 8
        0x0000032c:    bf00        ..      NOP      
        0x0000032e:    f7ffff9b    ....    BL       SYS_Init ; 0x268
        0x00000332:    bf00        ..      NOP      
        0x00000334:    2000        .       MOVS     r0,#0
        0x00000336:    4914        .I      LDR      r1,[pc,#80] ; [0x388] = 0x50000040
        0x00000338:    31c0        .1      ADDS     r1,r1,#0xc0
        0x0000033a:    6008        .`      STR      r0,[r1,#0]
        0x0000033c:    bf00        ..      NOP      
        0x0000033e:    f7ffffbe    ....    BL       UART0_Init ; 0x2be
        0x00000342:    483e        >H      LDR      r0,[pc,#248] ; [0x43c] = 0x20000000
        0x00000344:    6801        .h      LDR      r1,[r0,#0]
        0x00000346:    a03e        >.      ADR      r0,{pc}+0xfa ; 0x440
        0x00000348:    f003fd5a    ..Z.    BL       __0printf$5 ; 0x3e00
        0x0000034c:    2000        .       MOVS     r0,#0
        0x0000034e:    2101        .!      MOVS     r1,#1
        0x00000350:    4603        .F      MOV      r3,r0
        0x00000352:    2232        2"      MOVS     r2,#0x32
        0x00000354:    9100        ..      STR      r1,[sp,#0]
        0x00000356:    9001        ..      STR      r0,[sp,#4]
        0x00000358:    a13d        =.      ADR      r1,{pc}+0xf8 ; 0x450
        0x0000035a:    483e        >H      LDR      r0,[pc,#248] ; [0x454] = 0x2d3
        0x0000035c:    f000ffe8    ....    BL       xTaskCreate ; 0x1330
        0x00000360:    a03d        =.      ADR      r0,{pc}+0xf8 ; 0x458
        0x00000362:    f003fd4d    ..M.    BL       __0printf$5 ; 0x3e00
        0x00000366:    f001fc61    ..a.    BL       vTaskStartScheduler ; 0x1c2c
        0x0000036a:    bf00        ..      NOP      
        0x0000036c:    e7fe        ..      B        0x36c ; main + 96
    vApplicationMallocFailedHook
        0x0000036e:    b672        r.      CPSID    i
        0x00000370:    a040        @.      ADR      r0,{pc}+0x104 ; 0x474
        0x00000372:    f003fd45    ..E.    BL       __0printf$5 ; 0x3e00
        0x00000376:    bf00        ..      NOP      
        0x00000378:    e7fe        ..      B        0x378 ; vApplicationMallocFailedHook + 10
    vApplicationIdleHook
        0x0000037a:    4770        pG      BX       lr
    vApplicationTickHook
        0x0000037c:    4770        pG      BX       lr
    $d
        0x0000037e:    0000        ..      DCW    0
        0x00000380:    044aa200    ..J.    DCD    72000000
        0x00000384:    57803d10    .=.W    DCD    1468022032
        0x00000388:    50000040    @..P    DCD    1342177344
        0x0000038c:    04000010    ....    DCD    67108880
        0x00000390:    40050000    ...@    DCD    1074069504
        0x00000394:    50004080    .@.P    DCD    1342193792
        0x00000398:    2d2d2d2b    +---    DCD    757935403
        0x0000039c:    2d2d2d2d    ----    DCD    757935405
        0x000003a0:    2d2d2d2d    ----    DCD    757935405
        0x000003a4:    2d2d2d2d    ----    DCD    757935405
        0x000003a8:    2d2d2d2d    ----    DCD    757935405
        0x000003ac:    2d2d2d2d    ----    DCD    757935405
        0x000003b0:    2d2d2d2d    ----    DCD    757935405
        0x000003b4:    2d2d2d2d    ----    DCD    757935405
        0x000003b8:    2d2d2d2d    ----    DCD    757935405
        0x000003bc:    2d2d2d2d    ----    DCD    757935405
        0x000003c0:    2d2d2d2d    ----    DCD    757935405
        0x000003c4:    2d2d2d2d    ----    DCD    757935405
        0x000003c8:    0a2b2d2d    --+.    DCD    170601773
        0x000003cc:    00000000    ....    DCD    0
        0x000003d0:    2020207c    |       DCD    538976380
        0x000003d4:    2e435020     PC.    DCD    776163360
        0x000003d8:    654c2839    9(Le    DCD    1699489849
        0x000003dc:    53202964    d) S    DCD    1394616676
        0x000003e0:    6c706d61    ampl    DCD    1819307361
        0x000003e4:    6f432065    e Co    DCD    1866670181
        0x000003e8:    20206564    de      DCD    538994020
        0x000003ec:    7c202020       |    DCD    2082480160
        0x000003f0:    0000000a    ....    DCD    10
        0x000003f4:    2d2d2d2b    +---    DCD    757935403
        0x000003f8:    2d2d2d2d    ----    DCD    757935405
        0x000003fc:    2d2d2d2d    ----    DCD    757935405
        0x00000400:    2d2d2d2d    ----    DCD    757935405
        0x00000404:    2d2d2d2d    ----    DCD    757935405
        0x00000408:    2d2d2d2d    ----    DCD    757935405
        0x0000040c:    2d2d2d2d    ----    DCD    757935405
        0x00000410:    2d2d2d2d    ----    DCD    757935405
        0x00000414:    2d2d2d2d    ----    DCD    757935405
        0x00000418:    2d2d2d2d    ----    DCD    757935405
        0x0000041c:    2d2d2d2d    ----    DCD    757935405
        0x00000420:    2d2d2d2d    ----    DCD    757935405
        0x00000424:    0a2b2d2d    --+.    DCD    170601773
        0x00000428:    0000000a    ....    DCD    10
        0x0000042c:    50004280    .B.P    DCD    1342194304
        0x00000430:    2064656c    led     DCD    543450476
        0x00000434:    6e696c62    blin    DCD    1852402786
        0x00000438:    00000a6b    k...    DCD    2667
        0x0000043c:    20000000    ...     DCD    536870912
        0x00000440:    50430a0a    ..CP    DCD    1346570762
        0x00000444:    20402055    U @     DCD    541073493
        0x00000448:    48206425    %d H    DCD    1210082341
        0x0000044c:    00000a7a    z...    DCD    2682
        0x00000450:    0044454c    LED.    DCD    4474188
        0x00000454:    000002d3    ....    DCD    723
        0x00000458:    65657246    Free    DCD    1701147206
        0x0000045c:    534f5452    RTOS    DCD    1397707858
        0x00000460:    20736920     is     DCD    544434464
        0x00000464:    72617473    star    DCD    1918989427
        0x00000468:    676e6974    ting    DCD    1735289204
        0x0000046c:    2e2e2e20     ...    DCD    774778400
        0x00000470:    0000000a    ....    DCD    10
        0x00000474:    70704176    vApp    DCD    1886404982
        0x00000478:    6163696c    lica    DCD    1633905004
        0x0000047c:    6e6f6974    tion    DCD    1852795252
        0x00000480:    6c6c614d    Mall    DCD    1819042125
        0x00000484:    6146636f    ocFa    DCD    1632002927
        0x00000488:    64656c69    iled    DCD    1684368489
        0x0000048c:    6b6f6f48    Hook    DCD    1802465096
        0x00000490:    0000000a    ....    DCD    10
    $t
    .text
    stackDump
        0x00000494:    b510        ..      PUSH     {r4,lr}
        0x00000496:    4604        .F      MOV      r4,r0
        0x00000498:    a03c        <.      ADR      r0,{pc}+0xf4 ; 0x58c
        0x0000049a:    6821        !h      LDR      r1,[r4,#0]
        0x0000049c:    f003fcb0    ....    BL       __0printf$5 ; 0x3e00
        0x000004a0:    a03d        =.      ADR      r0,{pc}+0xf8 ; 0x598
        0x000004a2:    6861        ah      LDR      r1,[r4,#4]
        0x000004a4:    f003fcac    ....    BL       __0printf$5 ; 0x3e00
        0x000004a8:    a03e        >.      ADR      r0,{pc}+0xfc ; 0x5a4
        0x000004aa:    68a1        .h      LDR      r1,[r4,#8]
        0x000004ac:    f003fca8    ....    BL       __0printf$5 ; 0x3e00
        0x000004b0:    a03f        ?.      ADR      r0,{pc}+0x100 ; 0x5b0
        0x000004b2:    68e1        .h      LDR      r1,[r4,#0xc]
        0x000004b4:    f003fca4    ....    BL       __0printf$5 ; 0x3e00
        0x000004b8:    a040        @.      ADR      r0,{pc}+0x104 ; 0x5bc
        0x000004ba:    6921        !i      LDR      r1,[r4,#0x10]
        0x000004bc:    f003fca0    ....    BL       __0printf$5 ; 0x3e00
        0x000004c0:    a041        A.      ADR      r0,{pc}+0x108 ; 0x5c8
        0x000004c2:    6961        ai      LDR      r1,[r4,#0x14]
        0x000004c4:    f003fc9c    ....    BL       __0printf$5 ; 0x3e00
        0x000004c8:    a042        B.      ADR      r0,{pc}+0x10c ; 0x5d4
        0x000004ca:    69a1        .i      LDR      r1,[r4,#0x18]
        0x000004cc:    f003fc98    ....    BL       __0printf$5 ; 0x3e00
        0x000004d0:    a043        C.      ADR      r0,{pc}+0x110 ; 0x5e0
        0x000004d2:    69e1        .i      LDR      r1,[r4,#0x1c]
        0x000004d4:    f003fc94    ....    BL       __0printf$5 ; 0x3e00
        0x000004d8:    bd10        ..      POP      {r4,pc}
    Hard_Fault_Handler
    __tagsym$$used
        0x000004da:    4604        .F      MOV      r4,r0
        0x000004dc:    a043        C.      ADR      r0,{pc}+0x110 ; 0x5ec
        0x000004de:    f003fc8f    ....    BL       __0printf$5 ; 0x3e00
        0x000004e2:    4620         F      MOV      r0,r4
        0x000004e4:    f7ffffd6    ....    BL       stackDump ; 0x494
        0x000004e8:    bf00        ..      NOP      
        0x000004ea:    e7fe        ..      B        0x4ea ; Hard_Fault_Handler + 16
    SendChar_ToUART
        0x000004ec:    bf00        ..      NOP      
        0x000004ee:    4945        EI      LDR      r1,[pc,#276] ; [0x604] = 0x40050000
        0x000004f0:    6989        .i      LDR      r1,[r1,#0x18]
        0x000004f2:    2201        ."      MOVS     r2,#1
        0x000004f4:    05d2        ..      LSLS     r2,r2,#23
        0x000004f6:    4011        .@      ANDS     r1,r1,r2
        0x000004f8:    2900        .)      CMP      r1,#0
        0x000004fa:    d1f8        ..      BNE      0x4ee ; SendChar_ToUART + 2
        0x000004fc:    4941        AI      LDR      r1,[pc,#260] ; [0x604] = 0x40050000
        0x000004fe:    6008        .`      STR      r0,[r1,#0]
        0x00000500:    280a        .(      CMP      r0,#0xa
        0x00000502:    d10a        ..      BNE      0x51a ; SendChar_ToUART + 46
        0x00000504:    bf00        ..      NOP      
        0x00000506:    493f        ?I      LDR      r1,[pc,#252] ; [0x604] = 0x40050000
        0x00000508:    6989        .i      LDR      r1,[r1,#0x18]
        0x0000050a:    2201        ."      MOVS     r2,#1
        0x0000050c:    05d2        ..      LSLS     r2,r2,#23
        0x0000050e:    4011        .@      ANDS     r1,r1,r2
        0x00000510:    2900        .)      CMP      r1,#0
        0x00000512:    d1f8        ..      BNE      0x506 ; SendChar_ToUART + 26
        0x00000514:    210d        .!      MOVS     r1,#0xd
        0x00000516:    4a3b        ;J      LDR      r2,[pc,#236] ; [0x604] = 0x40050000
        0x00000518:    6011        .`      STR      r1,[r2,#0]
        0x0000051a:    4770        pG      BX       lr
    SendChar
        0x0000051c:    b500        ..      PUSH     {lr}
        0x0000051e:    4603        .F      MOV      r3,r0
        0x00000520:    4618        .F      MOV      r0,r3
        0x00000522:    f7ffffe3    ....    BL       SendChar_ToUART ; 0x4ec
        0x00000526:    bd00        ..      POP      {pc}
    GetChar
        0x00000528:    e00a        ..      B        0x540 ; GetChar + 24
        0x0000052a:    4836        6H      LDR      r0,[pc,#216] ; [0x604] = 0x40050000
        0x0000052c:    6980        .i      LDR      r0,[r0,#0x18]
        0x0000052e:    2101        .!      MOVS     r1,#1
        0x00000530:    0389        ..      LSLS     r1,r1,#14
        0x00000532:    4008        .@      ANDS     r0,r0,r1
        0x00000534:    2800        .(      CMP      r0,#0
        0x00000536:    d103        ..      BNE      0x540 ; GetChar + 24
        0x00000538:    4832        2H      LDR      r0,[pc,#200] ; [0x604] = 0x40050000
        0x0000053a:    6800        .h      LDR      r0,[r0,#0]
        0x0000053c:    b2c0        ..      UXTB     r0,r0
        0x0000053e:    4770        pG      BX       lr
        0x00000540:    e7f3        ..      B        0x52a ; GetChar + 2
    kbhit
        0x00000542:    4830        0H      LDR      r0,[pc,#192] ; [0x604] = 0x40050000
        0x00000544:    6980        .i      LDR      r0,[r0,#0x18]
        0x00000546:    2101        .!      MOVS     r1,#1
        0x00000548:    0389        ..      LSLS     r1,r1,#14
        0x0000054a:    4008        .@      ANDS     r0,r0,r1
        0x0000054c:    0b80        ..      LSRS     r0,r0,#14
        0x0000054e:    4770        pG      BX       lr
    IsDebugFifoEmpty
        0x00000550:    482c        ,H      LDR      r0,[pc,#176] ; [0x604] = 0x40050000
        0x00000552:    6980        .i      LDR      r0,[r0,#0x18]
        0x00000554:    2101        .!      MOVS     r1,#1
        0x00000556:    0709        ..      LSLS     r1,r1,#28
        0x00000558:    4008        .@      ANDS     r0,r0,r1
        0x0000055a:    0f00        ..      LSRS     r0,r0,#28
        0x0000055c:    4770        pG      BX       lr
    _ttywrch
        0x0000055e:    b510        ..      PUSH     {r4,lr}
        0x00000560:    4604        .F      MOV      r4,r0
        0x00000562:    4620         F      MOV      r0,r4
        0x00000564:    f7ffffda    ....    BL       SendChar ; 0x51c
        0x00000568:    bd10        ..      POP      {r4,pc}
    fputc
        0x0000056a:    b530        0.      PUSH     {r4,r5,lr}
        0x0000056c:    4604        .F      MOV      r4,r0
        0x0000056e:    460d        .F      MOV      r5,r1
        0x00000570:    4620         F      MOV      r0,r4
        0x00000572:    f7ffffd3    ....    BL       SendChar ; 0x51c
        0x00000576:    4620         F      MOV      r0,r4
        0x00000578:    bd30        0.      POP      {r4,r5,pc}
    fgetc
        0x0000057a:    b500        ..      PUSH     {lr}
        0x0000057c:    4602        .F      MOV      r2,r0
        0x0000057e:    f7ffffd3    ....    BL       GetChar ; 0x528
        0x00000582:    bd00        ..      POP      {pc}
    ferror
        0x00000584:    4601        .F      MOV      r1,r0
        0x00000586:    2000        .       MOVS     r0,#0
        0x00000588:    43c0        .C      MVNS     r0,r0
        0x0000058a:    4770        pG      BX       lr
    $d
        0x0000058c:    20203072    r0      DCD    538980466
        0x00000590:    7830203d    = 0x    DCD    2016419901
        0x00000594:    000a7825    %x..    DCD    686117
        0x00000598:    20203172    r1      DCD    538980722
        0x0000059c:    7830203d    = 0x    DCD    2016419901
        0x000005a0:    000a7825    %x..    DCD    686117
        0x000005a4:    20203272    r2      DCD    538980978
        0x000005a8:    7830203d    = 0x    DCD    2016419901
        0x000005ac:    000a7825    %x..    DCD    686117
        0x000005b0:    20203372    r3      DCD    538981234
        0x000005b4:    7830203d    = 0x    DCD    2016419901
        0x000005b8:    000a7825    %x..    DCD    686117
        0x000005bc:    20323172    r12     DCD    540160370
        0x000005c0:    7830203d    = 0x    DCD    2016419901
        0x000005c4:    000a7825    %x..    DCD    686117
        0x000005c8:    2020726c    lr      DCD    538997356
        0x000005cc:    7830203d    = 0x    DCD    2016419901
        0x000005d0:    000a7825    %x..    DCD    686117
        0x000005d4:    20206370    pc      DCD    538993520
        0x000005d8:    7830203d    = 0x    DCD    2016419901
        0x000005dc:    000a7825    %x..    DCD    686117
        0x000005e0:    20727370    psr     DCD    544371568
        0x000005e4:    7830203d    = 0x    DCD    2016419901
        0x000005e8:    000a7825    %x..    DCD    686117
        0x000005ec:    48206e49    In H    DCD    1210084937
        0x000005f0:    20647261    ard     DCD    543453793
        0x000005f4:    6c756146    Faul    DCD    1819631942
        0x000005f8:    61482074    t Ha    DCD    1632116852
        0x000005fc:    656c646e    ndle    DCD    1701602414
        0x00000600:    00000a72    r...    DCD    2674
        0x00000604:    40050000    ...@    DCD    1074069504
    $t
    .text
    GPIO_SetMode
        0x00000608:    b570        p.      PUSH     {r4-r6,lr}
        0x0000060a:    4603        .F      MOV      r3,r0
        0x0000060c:    2000        .       MOVS     r0,#0
        0x0000060e:    e00f        ..      B        0x630 ; GPIO_SetMode + 40
        0x00000610:    2401        .$      MOVS     r4,#1
        0x00000612:    4084        .@      LSLS     r4,r4,r0
        0x00000614:    400c        .@      ANDS     r4,r4,r1
        0x00000616:    2c00        .,      CMP      r4,#0
        0x00000618:    d009        ..      BEQ      0x62e ; GPIO_SetMode + 38
        0x0000061a:    681c        .h      LDR      r4,[r3,#0]
        0x0000061c:    0046        F.      LSLS     r6,r0,#1
        0x0000061e:    2503        .%      MOVS     r5,#3
        0x00000620:    40b5        .@      LSLS     r5,r5,r6
        0x00000622:    43ac        .C      BICS     r4,r4,r5
        0x00000624:    0046        F.      LSLS     r6,r0,#1
        0x00000626:    4615        .F      MOV      r5,r2
        0x00000628:    40b5        .@      LSLS     r5,r5,r6
        0x0000062a:    432c        ,C      ORRS     r4,r4,r5
        0x0000062c:    601c        .`      STR      r4,[r3,#0]
        0x0000062e:    1c40        @.      ADDS     r0,r0,#1
        0x00000630:    2810        .(      CMP      r0,#0x10
        0x00000632:    d3ed        ..      BCC      0x610 ; GPIO_SetMode + 8
        0x00000634:    bd70        p.      POP      {r4-r6,pc}
    GPIO_EnableInt
        0x00000636:    b510        ..      PUSH     {r4,lr}
        0x00000638:    6984        .i      LDR      r4,[r0,#0x18]
        0x0000063a:    0e13        ..      LSRS     r3,r2,#24
        0x0000063c:    408b        .@      LSLS     r3,r3,r1
        0x0000063e:    431c        .C      ORRS     r4,r4,r3
        0x00000640:    6184        .a      STR      r4,[r0,#0x18]
        0x00000642:    69c3        .i      LDR      r3,[r0,#0x1c]
        0x00000644:    0214        ..      LSLS     r4,r2,#8
        0x00000646:    0a24        $.      LSRS     r4,r4,#8
        0x00000648:    408c        .@      LSLS     r4,r4,r1
        0x0000064a:    4323        #C      ORRS     r3,r3,r4
        0x0000064c:    61c3        .a      STR      r3,[r0,#0x1c]
        0x0000064e:    bd10        ..      POP      {r4,pc}
    GPIO_DisableInt
        0x00000650:    6982        .i      LDR      r2,[r0,#0x18]
        0x00000652:    2301        .#      MOVS     r3,#1
        0x00000654:    408b        .@      LSLS     r3,r3,r1
        0x00000656:    439a        .C      BICS     r2,r2,r3
        0x00000658:    6182        .a      STR      r2,[r0,#0x18]
        0x0000065a:    69c3        .i      LDR      r3,[r0,#0x1c]
        0x0000065c:    4a02        .J      LDR      r2,[pc,#8] ; [0x668] = 0x10001
        0x0000065e:    408a        .@      LSLS     r2,r2,r1
        0x00000660:    4393        .C      BICS     r3,r3,r2
        0x00000662:    61c3        .a      STR      r3,[r0,#0x1c]
        0x00000664:    4770        pG      BX       lr
    $d
        0x00000666:    0000        ..      DCW    0
        0x00000668:    00010001    ....    DCD    65537
    $t
    .text
    CLK_DisableCKO
        0x0000066c:    48f6        .H      LDR      r0,[pc,#984] ; [0xa48] = 0x50000200
        0x0000066e:    6880        .h      LDR      r0,[r0,#8]
        0x00000670:    2140        @!      MOVS     r1,#0x40
        0x00000672:    4388        .C      BICS     r0,r0,r1
        0x00000674:    49f4        .I      LDR      r1,[pc,#976] ; [0xa48] = 0x50000200
        0x00000676:    6088        .`      STR      r0,[r1,#8]
        0x00000678:    4770        pG      BX       lr
    CLK_EnableCKO
        0x0000067a:    b510        ..      PUSH     {r4,lr}
        0x0000067c:    2310        .#      MOVS     r3,#0x10
        0x0000067e:    430b        .C      ORRS     r3,r3,r1
        0x00000680:    0154        T.      LSLS     r4,r2,#5
        0x00000682:    4323        #C      ORRS     r3,r3,r4
        0x00000684:    4cf0        .L      LDR      r4,[pc,#960] ; [0xa48] = 0x50000200
        0x00000686:    6263        cb      STR      r3,[r4,#0x24]
        0x00000688:    4623        #F      MOV      r3,r4
        0x0000068a:    689b        .h      LDR      r3,[r3,#8]
        0x0000068c:    2440        @$      MOVS     r4,#0x40
        0x0000068e:    4323        #C      ORRS     r3,r3,r4
        0x00000690:    4ced        .L      LDR      r4,[pc,#948] ; [0xa48] = 0x50000200
        0x00000692:    60a3        .`      STR      r3,[r4,#8]
        0x00000694:    4623        #F      MOV      r3,r4
        0x00000696:    69db        .i      LDR      r3,[r3,#0x1c]
        0x00000698:    241c        .$      MOVS     r4,#0x1c
        0x0000069a:    43a3        .C      BICS     r3,r3,r4
        0x0000069c:    4303        .C      ORRS     r3,r3,r0
        0x0000069e:    4cea        .L      LDR      r4,[pc,#936] ; [0xa48] = 0x50000200
        0x000006a0:    61e3        .a      STR      r3,[r4,#0x1c]
        0x000006a2:    bd10        ..      POP      {r4,pc}
    CLK_PowerDown
        0x000006a4:    48e9        .H      LDR      r0,[pc,#932] ; [0xa4c] = 0xe000ed00
        0x000006a6:    6900        .i      LDR      r0,[r0,#0x10]
        0x000006a8:    2104        .!      MOVS     r1,#4
        0x000006aa:    4308        .C      ORRS     r0,r0,r1
        0x000006ac:    49e7        .I      LDR      r1,[pc,#924] ; [0xa4c] = 0xe000ed00
        0x000006ae:    6108        .a      STR      r0,[r1,#0x10]
        0x000006b0:    48e5        .H      LDR      r0,[pc,#916] ; [0xa48] = 0x50000200
        0x000006b2:    6800        .h      LDR      r0,[r0,#0]
        0x000006b4:    2180        .!      MOVS     r1,#0x80
        0x000006b6:    4308        .C      ORRS     r0,r0,r1
        0x000006b8:    49e3        .I      LDR      r1,[pc,#908] ; [0xa48] = 0x50000200
        0x000006ba:    6008        .`      STR      r0,[r1,#0]
        0x000006bc:    bf30        0.      WFI      
        0x000006be:    4770        pG      BX       lr
    CLK_Idle
        0x000006c0:    48e2        .H      LDR      r0,[pc,#904] ; [0xa4c] = 0xe000ed00
        0x000006c2:    6900        .i      LDR      r0,[r0,#0x10]
        0x000006c4:    2104        .!      MOVS     r1,#4
        0x000006c6:    4388        .C      BICS     r0,r0,r1
        0x000006c8:    49e0        .I      LDR      r1,[pc,#896] ; [0xa4c] = 0xe000ed00
        0x000006ca:    6108        .a      STR      r0,[r1,#0x10]
        0x000006cc:    48de        .H      LDR      r0,[pc,#888] ; [0xa48] = 0x50000200
        0x000006ce:    6800        .h      LDR      r0,[r0,#0]
        0x000006d0:    2180        .!      MOVS     r1,#0x80
        0x000006d2:    4388        .C      BICS     r0,r0,r1
        0x000006d4:    49dc        .I      LDR      r1,[pc,#880] ; [0xa48] = 0x50000200
        0x000006d6:    6008        .`      STR      r0,[r1,#0]
        0x000006d8:    bf30        0.      WFI      
        0x000006da:    4770        pG      BX       lr
    CLK_GetHXTFreq
        0x000006dc:    48da        .H      LDR      r0,[pc,#872] ; [0xa48] = 0x50000200
        0x000006de:    6800        .h      LDR      r0,[r0,#0]
        0x000006e0:    07c0        ..      LSLS     r0,r0,#31
        0x000006e2:    0fc0        ..      LSRS     r0,r0,#31
        0x000006e4:    2800        .(      CMP      r0,#0
        0x000006e6:    d001        ..      BEQ      0x6ec ; CLK_GetHXTFreq + 16
        0x000006e8:    48d9        .H      LDR      r0,[pc,#868] ; [0xa50] = 0xb71b00
        0x000006ea:    4770        pG      BX       lr
        0x000006ec:    2000        .       MOVS     r0,#0
        0x000006ee:    e7fc        ..      B        0x6ea ; CLK_GetHXTFreq + 14
    CLK_GetLXTFreq
        0x000006f0:    48d5        .H      LDR      r0,[pc,#852] ; [0xa48] = 0x50000200
        0x000006f2:    6800        .h      LDR      r0,[r0,#0]
        0x000006f4:    2102        .!      MOVS     r1,#2
        0x000006f6:    4008        .@      ANDS     r0,r0,r1
        0x000006f8:    2800        .(      CMP      r0,#0
        0x000006fa:    d001        ..      BEQ      0x700 ; CLK_GetLXTFreq + 16
        0x000006fc:    0388        ..      LSLS     r0,r1,#14
        0x000006fe:    4770        pG      BX       lr
        0x00000700:    2000        .       MOVS     r0,#0
        0x00000702:    e7fc        ..      B        0x6fe ; CLK_GetLXTFreq + 14
    CLK_GetHCLKFreq
        0x00000704:    b510        ..      PUSH     {r4,lr}
        0x00000706:    f7fffd3d    ..=.    BL       SystemCoreClockUpdate ; 0x184
        0x0000070a:    48d2        .H      LDR      r0,[pc,#840] ; [0xa54] = 0x20000000
        0x0000070c:    6800        .h      LDR      r0,[r0,#0]
        0x0000070e:    bd10        ..      POP      {r4,pc}
    CLK_GetPCLK0Freq
        0x00000710:    b510        ..      PUSH     {r4,lr}
        0x00000712:    f7fffd37    ..7.    BL       SystemCoreClockUpdate ; 0x184
        0x00000716:    48cc        .H      LDR      r0,[pc,#816] ; [0xa48] = 0x50000200
        0x00000718:    6900        .i      LDR      r0,[r0,#0x10]
        0x0000071a:    2140        @!      MOVS     r1,#0x40
        0x0000071c:    4008        .@      ANDS     r0,r0,r1
        0x0000071e:    2800        .(      CMP      r0,#0
        0x00000720:    d003        ..      BEQ      0x72a ; CLK_GetPCLK0Freq + 26
        0x00000722:    48cc        .H      LDR      r0,[pc,#816] ; [0xa54] = 0x20000000
        0x00000724:    6800        .h      LDR      r0,[r0,#0]
        0x00000726:    0840        @.      LSRS     r0,r0,#1
        0x00000728:    bd10        ..      POP      {r4,pc}
        0x0000072a:    48ca        .H      LDR      r0,[pc,#808] ; [0xa54] = 0x20000000
        0x0000072c:    6800        .h      LDR      r0,[r0,#0]
        0x0000072e:    e7fb        ..      B        0x728 ; CLK_GetPCLK0Freq + 24
    CLK_GetPCLK1Freq
        0x00000730:    b510        ..      PUSH     {r4,lr}
        0x00000732:    f7fffd27    ..'.    BL       SystemCoreClockUpdate ; 0x184
        0x00000736:    48c4        .H      LDR      r0,[pc,#784] ; [0xa48] = 0x50000200
        0x00000738:    6900        .i      LDR      r0,[r0,#0x10]
        0x0000073a:    2180        .!      MOVS     r1,#0x80
        0x0000073c:    4008        .@      ANDS     r0,r0,r1
        0x0000073e:    2800        .(      CMP      r0,#0
        0x00000740:    d003        ..      BEQ      0x74a ; CLK_GetPCLK1Freq + 26
        0x00000742:    48c4        .H      LDR      r0,[pc,#784] ; [0xa54] = 0x20000000
        0x00000744:    6800        .h      LDR      r0,[r0,#0]
        0x00000746:    0840        @.      LSRS     r0,r0,#1
        0x00000748:    bd10        ..      POP      {r4,pc}
        0x0000074a:    48c2        .H      LDR      r0,[pc,#776] ; [0xa54] = 0x20000000
        0x0000074c:    6800        .h      LDR      r0,[r0,#0]
        0x0000074e:    e7fb        ..      B        0x748 ; CLK_GetPCLK1Freq + 24
    CLK_GetCPUFreq
        0x00000750:    b510        ..      PUSH     {r4,lr}
        0x00000752:    f7fffd17    ....    BL       SystemCoreClockUpdate ; 0x184
        0x00000756:    48bf        .H      LDR      r0,[pc,#764] ; [0xa54] = 0x20000000
        0x00000758:    6800        .h      LDR      r0,[r0,#0]
        0x0000075a:    bd10        ..      POP      {r4,pc}
    CLK_WaitClockReady
        0x0000075c:    4601        .F      MOV      r1,r0
        0x0000075e:    4abe        .J      LDR      r2,[pc,#760] ; [0xa58] = 0x20f580
        0x00000760:    e005        ..      B        0x76e ; CLK_WaitClockReady + 18
        0x00000762:    4610        .F      MOV      r0,r2
        0x00000764:    1e52        R.      SUBS     r2,r2,#1
        0x00000766:    2800        .(      CMP      r0,#0
        0x00000768:    dc01        ..      BGT      0x76e ; CLK_WaitClockReady + 18
        0x0000076a:    2000        .       MOVS     r0,#0
        0x0000076c:    4770        pG      BX       lr
        0x0000076e:    48b6        .H      LDR      r0,[pc,#728] ; [0xa48] = 0x50000200
        0x00000770:    68c0        .h      LDR      r0,[r0,#0xc]
        0x00000772:    4008        .@      ANDS     r0,r0,r1
        0x00000774:    4288        .B      CMP      r0,r1
        0x00000776:    d1f4        ..      BNE      0x762 ; CLK_WaitClockReady + 6
        0x00000778:    2001        .       MOVS     r0,#1
        0x0000077a:    e7f7        ..      B        0x76c ; CLK_WaitClockReady + 16
    CLK_SetHCLK
        0x0000077c:    b570        p.      PUSH     {r4-r6,lr}
        0x0000077e:    4604        .F      MOV      r4,r0
        0x00000780:    460d        .F      MOV      r5,r1
        0x00000782:    48b1        .H      LDR      r0,[pc,#708] ; [0xa48] = 0x50000200
        0x00000784:    68c0        .h      LDR      r0,[r0,#0xc]
        0x00000786:    2110        .!      MOVS     r1,#0x10
        0x00000788:    4008        .@      ANDS     r0,r0,r1
        0x0000078a:    4606        .F      MOV      r6,r0
        0x0000078c:    48ae        .H      LDR      r0,[pc,#696] ; [0xa48] = 0x50000200
        0x0000078e:    6800        .h      LDR      r0,[r0,#0]
        0x00000790:    2104        .!      MOVS     r1,#4
        0x00000792:    4308        .C      ORRS     r0,r0,r1
        0x00000794:    49ac        .I      LDR      r1,[pc,#688] ; [0xa48] = 0x50000200
        0x00000796:    6008        .`      STR      r0,[r1,#0]
        0x00000798:    2010        .       MOVS     r0,#0x10
        0x0000079a:    f7ffffdf    ....    BL       CLK_WaitClockReady ; 0x75c
        0x0000079e:    48aa        .H      LDR      r0,[pc,#680] ; [0xa48] = 0x50000200
        0x000007a0:    6900        .i      LDR      r0,[r0,#0x10]
        0x000007a2:    08c0        ..      LSRS     r0,r0,#3
        0x000007a4:    00c0        ..      LSLS     r0,r0,#3
        0x000007a6:    1dc0        ..      ADDS     r0,r0,#7
        0x000007a8:    49a7        .I      LDR      r1,[pc,#668] ; [0xa48] = 0x50000200
        0x000007aa:    6108        .a      STR      r0,[r1,#0x10]
        0x000007ac:    4608        .F      MOV      r0,r1
        0x000007ae:    6980        .i      LDR      r0,[r0,#0x18]
        0x000007b0:    0900        ..      LSRS     r0,r0,#4
        0x000007b2:    0100        ..      LSLS     r0,r0,#4
        0x000007b4:    4328        (C      ORRS     r0,r0,r5
        0x000007b6:    6188        .a      STR      r0,[r1,#0x18]
        0x000007b8:    4608        .F      MOV      r0,r1
        0x000007ba:    6900        .i      LDR      r0,[r0,#0x10]
        0x000007bc:    08c0        ..      LSRS     r0,r0,#3
        0x000007be:    00c0        ..      LSLS     r0,r0,#3
        0x000007c0:    4320         C      ORRS     r0,r0,r4
        0x000007c2:    6108        .a      STR      r0,[r1,#0x10]
        0x000007c4:    f7fffcde    ....    BL       SystemCoreClockUpdate ; 0x184
        0x000007c8:    2e00        ..      CMP      r6,#0
        0x000007ca:    d105        ..      BNE      0x7d8 ; CLK_SetHCLK + 92
        0x000007cc:    489e        .H      LDR      r0,[pc,#632] ; [0xa48] = 0x50000200
        0x000007ce:    6800        .h      LDR      r0,[r0,#0]
        0x000007d0:    2104        .!      MOVS     r1,#4
        0x000007d2:    4388        .C      BICS     r0,r0,r1
        0x000007d4:    499c        .I      LDR      r1,[pc,#624] ; [0xa48] = 0x50000200
        0x000007d6:    6008        .`      STR      r0,[r1,#0]
        0x000007d8:    bd70        p.      POP      {r4-r6,pc}
    CLK_DisablePLL
        0x000007da:    489b        .H      LDR      r0,[pc,#620] ; [0xa48] = 0x50000200
        0x000007dc:    6a00        .j      LDR      r0,[r0,#0x20]
        0x000007de:    2101        .!      MOVS     r1,#1
        0x000007e0:    0409        ..      LSLS     r1,r1,#16
        0x000007e2:    4308        .C      ORRS     r0,r0,r1
        0x000007e4:    4998        .I      LDR      r1,[pc,#608] ; [0xa48] = 0x50000200
        0x000007e6:    6208        .b      STR      r0,[r1,#0x20]
        0x000007e8:    4770        pG      BX       lr
    CLK_EnablePLL
        0x000007ea:    b5f3        ..      PUSH     {r0,r1,r4-r7,lr}
        0x000007ec:    b089        ..      SUB      sp,sp,#0x24
        0x000007ee:    460c        .F      MOV      r4,r1
        0x000007f0:    f7fffff3    ....    BL       CLK_DisablePLL ; 0x7da
        0x000007f4:    9809        ..      LDR      r0,[sp,#0x24]
        0x000007f6:    2800        .(      CMP      r0,#0
        0x000007f8:    d10e        ..      BNE      0x818 ; CLK_EnablePLL + 46
        0x000007fa:    4893        .H      LDR      r0,[pc,#588] ; [0xa48] = 0x50000200
        0x000007fc:    6800        .h      LDR      r0,[r0,#0]
        0x000007fe:    2101        .!      MOVS     r1,#1
        0x00000800:    4308        .C      ORRS     r0,r0,r1
        0x00000802:    4991        .I      LDR      r1,[pc,#580] ; [0xa48] = 0x50000200
        0x00000804:    6008        .`      STR      r0,[r1,#0]
        0x00000806:    2001        .       MOVS     r0,#1
        0x00000808:    f7ffffa8    ....    BL       CLK_WaitClockReady ; 0x75c
        0x0000080c:    2000        .       MOVS     r0,#0
        0x0000080e:    9006        ..      STR      r0,[sp,#0x18]
        0x00000810:    488f        .H      LDR      r0,[pc,#572] ; [0xa50] = 0xb71b00
        0x00000812:    9008        ..      STR      r0,[sp,#0x20]
        0x00000814:    2502        .%      MOVS     r5,#2
        0x00000816:    e00e        ..      B        0x836 ; CLK_EnablePLL + 76
        0x00000818:    488b        .H      LDR      r0,[pc,#556] ; [0xa48] = 0x50000200
        0x0000081a:    6800        .h      LDR      r0,[r0,#0]
        0x0000081c:    2104        .!      MOVS     r1,#4
        0x0000081e:    4308        .C      ORRS     r0,r0,r1
        0x00000820:    4989        .I      LDR      r1,[pc,#548] ; [0xa48] = 0x50000200
        0x00000822:    6008        .`      STR      r0,[r1,#0]
        0x00000824:    2010        .       MOVS     r0,#0x10
        0x00000826:    f7ffff99    ....    BL       CLK_WaitClockReady ; 0x75c
        0x0000082a:    2001        .       MOVS     r0,#1
        0x0000082c:    04c0        ..      LSLS     r0,r0,#19
        0x0000082e:    9006        ..      STR      r0,[sp,#0x18]
        0x00000830:    488a        .H      LDR      r0,[pc,#552] ; [0xa5c] = 0x1518000
        0x00000832:    9008        ..      STR      r0,[sp,#0x20]
        0x00000834:    2504        .%      MOVS     r5,#4
        0x00000836:    488a        .H      LDR      r0,[pc,#552] ; [0xa60] = 0xbebc200
        0x00000838:    4284        .B      CMP      r4,r0
        0x0000083a:    d804        ..      BHI      0x846 ; CLK_EnablePLL + 92
        0x0000083c:    1040        @.      ASRS     r0,r0,#1
        0x0000083e:    4284        .B      CMP      r4,r0
        0x00000840:    d901        ..      BLS      0x846 ; CLK_EnablePLL + 92
        0x00000842:    2700        .'      MOVS     r7,#0
        0x00000844:    e012        ..      B        0x86c ; CLK_EnablePLL + 130
        0x00000846:    4887        .H      LDR      r0,[pc,#540] ; [0xa64] = 0x5f5e100
        0x00000848:    4284        .B      CMP      r4,r0
        0x0000084a:    d805        ..      BHI      0x858 ; CLK_EnablePLL + 110
        0x0000084c:    1040        @.      ASRS     r0,r0,#1
        0x0000084e:    4284        .B      CMP      r4,r0
        0x00000850:    d902        ..      BLS      0x858 ; CLK_EnablePLL + 110
        0x00000852:    2701        .'      MOVS     r7,#1
        0x00000854:    0064        d.      LSLS     r4,r4,#1
        0x00000856:    e009        ..      B        0x86c ; CLK_EnablePLL + 130
        0x00000858:    4883        .H      LDR      r0,[pc,#524] ; [0xa68] = 0x2faf080
        0x0000085a:    4284        .B      CMP      r4,r0
        0x0000085c:    d805        ..      BHI      0x86a ; CLK_EnablePLL + 128
        0x0000085e:    1040        @.      ASRS     r0,r0,#1
        0x00000860:    4284        .B      CMP      r4,r0
        0x00000862:    d302        ..      BCC      0x86a ; CLK_EnablePLL + 128
        0x00000864:    2703        .'      MOVS     r7,#3
        0x00000866:    00a4        ..      LSLS     r4,r4,#2
        0x00000868:    e000        ..      B        0x86c ; CLK_EnablePLL + 130
        0x0000086a:    e057        W.      B        0x91c ; CLK_EnablePLL + 306
        0x0000086c:    2000        .       MOVS     r0,#0
        0x0000086e:    43c0        .C      MVNS     r0,r0
        0x00000870:    9003        ..      STR      r0,[sp,#0xc]
        0x00000872:    2000        .       MOVS     r0,#0
        0x00000874:    9001        ..      STR      r0,[sp,#4]
        0x00000876:    9002        ..      STR      r0,[sp,#8]
        0x00000878:    e034        4.      B        0x8e4 ; CLK_EnablePLL + 250
        0x0000087a:    4629        )F      MOV      r1,r5
        0x0000087c:    9808        ..      LDR      r0,[sp,#0x20]
        0x0000087e:    f003fa21    ..!.    BL       __aeabi_uidiv ; 0x3cc4
        0x00000882:    9005        ..      STR      r0,[sp,#0x14]
        0x00000884:    4979        yI      LDR      r1,[pc,#484] ; [0xa6c] = 0x186a00
        0x00000886:    9805        ..      LDR      r0,[sp,#0x14]
        0x00000888:    4288        .B      CMP      r0,r1
        0x0000088a:    d92a        *.      BLS      0x8e2 ; CLK_EnablePLL + 248
        0x0000088c:    4978        xI      LDR      r1,[pc,#480] ; [0xa70] = 0xf42400
        0x0000088e:    9805        ..      LDR      r0,[sp,#0x14]
        0x00000890:    4288        .B      CMP      r0,r1
        0x00000892:    d226        &.      BCS      0x8e2 ; CLK_EnablePLL + 248
        0x00000894:    2002        .       MOVS     r0,#2
        0x00000896:    9007        ..      STR      r0,[sp,#0x1c]
        0x00000898:    e01e        ..      B        0x8d8 ; CLK_EnablePLL + 238
        0x0000089a:    9e05        ..      LDR      r6,[sp,#0x14]
        0x0000089c:    9907        ..      LDR      r1,[sp,#0x1c]
        0x0000089e:    434e        NC      MULS     r6,r1,r6
        0x000008a0:    4870        pH      LDR      r0,[pc,#448] ; [0xa64] = 0x5f5e100
        0x000008a2:    4286        .B      CMP      r6,r0
        0x000008a4:    d315        ..      BCC      0x8d2 ; CLK_EnablePLL + 232
        0x000008a6:    0040        @.      LSLS     r0,r0,#1
        0x000008a8:    4286        .B      CMP      r6,r0
        0x000008aa:    d812        ..      BHI      0x8d2 ; CLK_EnablePLL + 232
        0x000008ac:    42a6        .B      CMP      r6,r4
        0x000008ae:    d901        ..      BLS      0x8b4 ; CLK_EnablePLL + 202
        0x000008b0:    1b30        0.      SUBS     r0,r6,r4
        0x000008b2:    e000        ..      B        0x8b6 ; CLK_EnablePLL + 204
        0x000008b4:    1ba0        ..      SUBS     r0,r4,r6
        0x000008b6:    9004        ..      STR      r0,[sp,#0x10]
        0x000008b8:    9903        ..      LDR      r1,[sp,#0xc]
        0x000008ba:    9804        ..      LDR      r0,[sp,#0x10]
        0x000008bc:    4288        .B      CMP      r0,r1
        0x000008be:    d208        ..      BCS      0x8d2 ; CLK_EnablePLL + 232
        0x000008c0:    9804        ..      LDR      r0,[sp,#0x10]
        0x000008c2:    9003        ..      STR      r0,[sp,#0xc]
        0x000008c4:    9501        ..      STR      r5,[sp,#4]
        0x000008c6:    9807        ..      LDR      r0,[sp,#0x1c]
        0x000008c8:    9002        ..      STR      r0,[sp,#8]
        0x000008ca:    9803        ..      LDR      r0,[sp,#0xc]
        0x000008cc:    2800        .(      CMP      r0,#0
        0x000008ce:    d100        ..      BNE      0x8d2 ; CLK_EnablePLL + 232
        0x000008d0:    e006        ..      B        0x8e0 ; CLK_EnablePLL + 246
        0x000008d2:    9807        ..      LDR      r0,[sp,#0x1c]
        0x000008d4:    1c40        @.      ADDS     r0,r0,#1
        0x000008d6:    9007        ..      STR      r0,[sp,#0x1c]
        0x000008d8:    4966        fI      LDR      r1,[pc,#408] ; [0xa74] = 0x201
        0x000008da:    9807        ..      LDR      r0,[sp,#0x1c]
        0x000008dc:    4288        .B      CMP      r0,r1
        0x000008de:    d9dc        ..      BLS      0x89a ; CLK_EnablePLL + 176
        0x000008e0:    bf00        ..      NOP      
        0x000008e2:    1c6d        m.      ADDS     r5,r5,#1
        0x000008e4:    2d21        !-      CMP      r5,#0x21
        0x000008e6:    d9c8        ..      BLS      0x87a ; CLK_EnablePLL + 144
        0x000008e8:    03b8        ..      LSLS     r0,r7,#14
        0x000008ea:    9906        ..      LDR      r1,[sp,#0x18]
        0x000008ec:    4308        .C      ORRS     r0,r0,r1
        0x000008ee:    9901        ..      LDR      r1,[sp,#4]
        0x000008f0:    1e89        ..      SUBS     r1,r1,#2
        0x000008f2:    0249        I.      LSLS     r1,r1,#9
        0x000008f4:    4308        .C      ORRS     r0,r0,r1
        0x000008f6:    9902        ..      LDR      r1,[sp,#8]
        0x000008f8:    1e89        ..      SUBS     r1,r1,#2
        0x000008fa:    4308        .C      ORRS     r0,r0,r1
        0x000008fc:    4952        RI      LDR      r1,[pc,#328] ; [0xa48] = 0x50000200
        0x000008fe:    6208        .b      STR      r0,[r1,#0x20]
        0x00000900:    2004        .       MOVS     r0,#4
        0x00000902:    f7ffff2b    ..+.    BL       CLK_WaitClockReady ; 0x75c
        0x00000906:    1c78        x.      ADDS     r0,r7,#1
        0x00000908:    9a01        ..      LDR      r2,[sp,#4]
        0x0000090a:    4350        PC      MULS     r0,r2,r0
        0x0000090c:    4601        .F      MOV      r1,r0
        0x0000090e:    9808        ..      LDR      r0,[sp,#0x20]
        0x00000910:    f003f9d8    ....    BL       __aeabi_uidiv ; 0x3cc4
        0x00000914:    9902        ..      LDR      r1,[sp,#8]
        0x00000916:    4348        HC      MULS     r0,r1,r0
        0x00000918:    b00b        ..      ADD      sp,sp,#0x2c
        0x0000091a:    bdf0        ..      POP      {r4-r7,pc}
        0x0000091c:    9809        ..      LDR      r0,[sp,#0x24]
        0x0000091e:    2800        .(      CMP      r0,#0
        0x00000920:    d103        ..      BNE      0x92a ; CLK_EnablePLL + 320
        0x00000922:    4855        UH      LDR      r0,[pc,#340] ; [0xa78] = 0x442e
        0x00000924:    4948        HI      LDR      r1,[pc,#288] ; [0xa48] = 0x50000200
        0x00000926:    6208        .b      STR      r0,[r1,#0x20]
        0x00000928:    e002        ..      B        0x930 ; CLK_EnablePLL + 326
        0x0000092a:    4854        TH      LDR      r0,[pc,#336] ; [0xa7c] = 0x84c32
        0x0000092c:    4946        FI      LDR      r1,[pc,#280] ; [0xa48] = 0x50000200
        0x0000092e:    6208        .b      STR      r0,[r1,#0x20]
        0x00000930:    2004        .       MOVS     r0,#4
        0x00000932:    f7ffff13    ....    BL       CLK_WaitClockReady ; 0x75c
        0x00000936:    f000f919    ....    BL       CLK_GetPLLClockFreq ; 0xb6c
        0x0000093a:    e7ed        ..      B        0x918 ; CLK_EnablePLL + 302
    CLK_SetCoreClock
        0x0000093c:    b570        p.      PUSH     {r4-r6,lr}
        0x0000093e:    4604        .F      MOV      r4,r0
        0x00000940:    4841        AH      LDR      r0,[pc,#260] ; [0xa48] = 0x50000200
        0x00000942:    68c0        .h      LDR      r0,[r0,#0xc]
        0x00000944:    2110        .!      MOVS     r1,#0x10
        0x00000946:    4008        .@      ANDS     r0,r0,r1
        0x00000948:    4605        .F      MOV      r5,r0
        0x0000094a:    484d        MH      LDR      r0,[pc,#308] ; [0xa80] = 0x44aa200
        0x0000094c:    4284        .B      CMP      r4,r0
        0x0000094e:    d900        ..      BLS      0x952 ; CLK_SetCoreClock + 22
        0x00000950:    4604        .F      MOV      r4,r0
        0x00000952:    484c        LH      LDR      r0,[pc,#304] ; [0xa84] = 0x17d7840
        0x00000954:    4284        .B      CMP      r4,r0
        0x00000956:    d200        ..      BCS      0x95a ; CLK_SetCoreClock + 30
        0x00000958:    4604        .F      MOV      r4,r0
        0x0000095a:    483b        ;H      LDR      r0,[pc,#236] ; [0xa48] = 0x50000200
        0x0000095c:    6800        .h      LDR      r0,[r0,#0]
        0x0000095e:    2104        .!      MOVS     r1,#4
        0x00000960:    4308        .C      ORRS     r0,r0,r1
        0x00000962:    4939        9I      LDR      r1,[pc,#228] ; [0xa48] = 0x50000200
        0x00000964:    6008        .`      STR      r0,[r1,#0]
        0x00000966:    2010        .       MOVS     r0,#0x10
        0x00000968:    f7fffef8    ....    BL       CLK_WaitClockReady ; 0x75c
        0x0000096c:    4836        6H      LDR      r0,[pc,#216] ; [0xa48] = 0x50000200
        0x0000096e:    6900        .i      LDR      r0,[r0,#0x10]
        0x00000970:    2107        .!      MOVS     r1,#7
        0x00000972:    4308        .C      ORRS     r0,r0,r1
        0x00000974:    4934        4I      LDR      r1,[pc,#208] ; [0xa48] = 0x50000200
        0x00000976:    6108        .a      STR      r0,[r1,#0x10]
        0x00000978:    4608        .F      MOV      r0,r1
        0x0000097a:    6980        .i      LDR      r0,[r0,#0x18]
        0x0000097c:    0900        ..      LSRS     r0,r0,#4
        0x0000097e:    0100        ..      LSLS     r0,r0,#4
        0x00000980:    6188        .a      STR      r0,[r1,#0x18]
        0x00000982:    4608        .F      MOV      r0,r1
        0x00000984:    68c0        .h      LDR      r0,[r0,#0xc]
        0x00000986:    07c0        ..      LSLS     r0,r0,#31
        0x00000988:    0fc0        ..      LSRS     r0,r0,#31
        0x0000098a:    2800        .(      CMP      r0,#0
        0x0000098c:    d005        ..      BEQ      0x99a ; CLK_SetCoreClock + 94
        0x0000098e:    0061        a.      LSLS     r1,r4,#1
        0x00000990:    2000        .       MOVS     r0,#0
        0x00000992:    f7ffff2a    ..*.    BL       CLK_EnablePLL ; 0x7ea
        0x00000996:    4604        .F      MOV      r4,r0
        0x00000998:    e00a        ..      B        0x9b0 ; CLK_SetCoreClock + 116
        0x0000099a:    0061        a.      LSLS     r1,r4,#1
        0x0000099c:    2001        .       MOVS     r0,#1
        0x0000099e:    04c0        ..      LSLS     r0,r0,#19
        0x000009a0:    f7ffff23    ..#.    BL       CLK_EnablePLL ; 0x7ea
        0x000009a4:    4604        .F      MOV      r4,r0
        0x000009a6:    4828        (H      LDR      r0,[pc,#160] ; [0xa48] = 0x50000200
        0x000009a8:    68c0        .h      LDR      r0,[r0,#0xc]
        0x000009aa:    2110        .!      MOVS     r1,#0x10
        0x000009ac:    4008        .@      ANDS     r0,r0,r1
        0x000009ae:    4605        .F      MOV      r5,r0
        0x000009b0:    2101        .!      MOVS     r1,#1
        0x000009b2:    2002        .       MOVS     r0,#2
        0x000009b4:    f7fffee2    ....    BL       CLK_SetHCLK ; 0x77c
        0x000009b8:    2d00        .-      CMP      r5,#0
        0x000009ba:    d105        ..      BNE      0x9c8 ; CLK_SetCoreClock + 140
        0x000009bc:    4822        "H      LDR      r0,[pc,#136] ; [0xa48] = 0x50000200
        0x000009be:    6800        .h      LDR      r0,[r0,#0]
        0x000009c0:    2104        .!      MOVS     r1,#4
        0x000009c2:    4388        .C      BICS     r0,r0,r1
        0x000009c4:    4920         I      LDR      r1,[pc,#128] ; [0xa48] = 0x50000200
        0x000009c6:    6008        .`      STR      r0,[r1,#0]
        0x000009c8:    0860        `.      LSRS     r0,r4,#1
        0x000009ca:    bd70        p.      POP      {r4-r6,pc}
    CLK_SetModuleClock
        0x000009cc:    b5f7        ..      PUSH     {r0-r2,r4-r7,lr}
        0x000009ce:    b086        ..      SUB      sp,sp,#0x18
        0x000009d0:    2200        ."      MOVS     r2,#0
        0x000009d2:    2300        .#      MOVS     r3,#0
        0x000009d4:    4c2c        ,L      LDR      r4,[pc,#176] ; [0xa88] = 0x4158
        0x000009d6:    4625        %F      MOV      r5,r4
        0x000009d8:    cde0        ..      LDM      r5,{r5-r7}
        0x000009da:    68e4        .h      LDR      r4,[r4,#0xc]
        0x000009dc:    9704        ..      STR      r7,[sp,#0x10]
        0x000009de:    9603        ..      STR      r6,[sp,#0xc]
        0x000009e0:    9502        ..      STR      r5,[sp,#8]
        0x000009e2:    9405        ..      STR      r4,[sp,#0x14]
        0x000009e4:    4d28        (M      LDR      r5,[pc,#160] ; [0xa88] = 0x4158
        0x000009e6:    3510        .5      ADDS     r5,r5,#0x10
        0x000009e8:    cd30        0.      LDM      r5,{r4,r5}
        0x000009ea:    9501        ..      STR      r5,[sp,#4]
        0x000009ec:    9400        ..      STR      r4,[sp,#0]
        0x000009ee:    0384        ..      LSLS     r4,r0,#14
        0x000009f0:    0e24        $.      LSRS     r4,r4,#24
        0x000009f2:    2c00        .,      CMP      r4,#0
        0x000009f4:    d011        ..      BEQ      0xa1a ; CLK_SetModuleClock + 78
        0x000009f6:    0304        ..      LSLS     r4,r0,#12
        0x000009f8:    0fa4        ..      LSRS     r4,r4,#30
        0x000009fa:    00a4        ..      LSLS     r4,r4,#2
        0x000009fc:    466d        mF      MOV      r5,sp
        0x000009fe:    592c        ,Y      LDR      r4,[r5,r4]
        0x00000a00:    4d11        .M      LDR      r5,[pc,#68] ; [0xa48] = 0x50000200
        0x00000a02:    3518        .5      ADDS     r5,r5,#0x18
        0x00000a04:    1963        c.      ADDS     r3,r4,r5
        0x00000a06:    0384        ..      LSLS     r4,r0,#14
        0x00000a08:    0e25        %.      LSRS     r5,r4,#24
        0x00000a0a:    0584        ..      LSLS     r4,r0,#22
        0x00000a0c:    0ee4        ..      LSRS     r4,r4,#27
        0x00000a0e:    40a5        .@      LSLS     r5,r5,r4
        0x00000a10:    681c        .h      LDR      r4,[r3,#0]
        0x00000a12:    43ac        .C      BICS     r4,r4,r5
        0x00000a14:    9d08        ..      LDR      r5,[sp,#0x20]
        0x00000a16:    432c        ,C      ORRS     r4,r4,r5
        0x00000a18:    601c        .`      STR      r4,[r3,#0]
        0x00000a1a:    0104        ..      LSLS     r4,r0,#4
        0x00000a1c:    0f64        d.      LSRS     r4,r4,#29
        0x00000a1e:    2c00        .,      CMP      r4,#0
        0x00000a20:    d010        ..      BEQ      0xa44 ; CLK_SetModuleClock + 120
        0x00000a22:    0084        ..      LSLS     r4,r0,#2
        0x00000a24:    0fa4        ..      LSRS     r4,r4,#30
        0x00000a26:    00a4        ..      LSLS     r4,r4,#2
        0x00000a28:    ad02        ..      ADD      r5,sp,#8
        0x00000a2a:    592c        ,Y      LDR      r4,[r5,r4]
        0x00000a2c:    4d06        .M      LDR      r5,[pc,#24] ; [0xa48] = 0x50000200
        0x00000a2e:    3510        .5      ADDS     r5,r5,#0x10
        0x00000a30:    1962        b.      ADDS     r2,r4,r5
        0x00000a32:    0104        ..      LSLS     r4,r0,#4
        0x00000a34:    0f65        e.      LSRS     r5,r4,#29
        0x00000a36:    01c4        ..      LSLS     r4,r0,#7
        0x00000a38:    0ee4        ..      LSRS     r4,r4,#27
        0x00000a3a:    40a5        .@      LSLS     r5,r5,r4
        0x00000a3c:    6814        .h      LDR      r4,[r2,#0]
        0x00000a3e:    43ac        .C      BICS     r4,r4,r5
        0x00000a40:    430c        .C      ORRS     r4,r4,r1
        0x00000a42:    6014        .`      STR      r4,[r2,#0]
        0x00000a44:    b009        ..      ADD      sp,sp,#0x24
        0x00000a46:    bdf0        ..      POP      {r4-r7,pc}
    $d
        0x00000a48:    50000200    ...P    DCD    1342177792
        0x00000a4c:    e000ed00    ....    DCD    3758157056
        0x00000a50:    00b71b00    ....    DCD    12000000
        0x00000a54:    20000000    ...     DCD    536870912
        0x00000a58:    0020f580    .. .    DCD    2160000
        0x00000a5c:    01518000    ..Q.    DCD    22118400
        0x00000a60:    0bebc200    ....    DCD    200000000
        0x00000a64:    05f5e100    ....    DCD    100000000
        0x00000a68:    02faf080    ....    DCD    50000000
        0x00000a6c:    00186a00    .j..    DCD    1600000
        0x00000a70:    00f42400    .$..    DCD    16000000
        0x00000a74:    00000201    ....    DCD    513
        0x00000a78:    0000442e    .D..    DCD    17454
        0x00000a7c:    00084c32    2L..    DCD    543794
        0x00000a80:    044aa200    ..J.    DCD    72000000
        0x00000a84:    017d7840    @x}.    DCD    25000000
        0x00000a88:    00004158    XA..    DCD    16728
    $t
    CLK_SetSysTickClockSrc
        0x00000a8c:    4953        SI      LDR      r1,[pc,#332] ; [0xbdc] = 0x50000200
        0x00000a8e:    6909        .i      LDR      r1,[r1,#0x10]
        0x00000a90:    2238        8"      MOVS     r2,#0x38
        0x00000a92:    4391        .C      BICS     r1,r1,r2
        0x00000a94:    4301        .C      ORRS     r1,r1,r0
        0x00000a96:    4a51        QJ      LDR      r2,[pc,#324] ; [0xbdc] = 0x50000200
        0x00000a98:    6111        .a      STR      r1,[r2,#0x10]
        0x00000a9a:    4770        pG      BX       lr
    CLK_EnableXtalRC
        0x00000a9c:    494f        OI      LDR      r1,[pc,#316] ; [0xbdc] = 0x50000200
        0x00000a9e:    6809        .h      LDR      r1,[r1,#0]
        0x00000aa0:    4301        .C      ORRS     r1,r1,r0
        0x00000aa2:    4a4e        NJ      LDR      r2,[pc,#312] ; [0xbdc] = 0x50000200
        0x00000aa4:    6011        .`      STR      r1,[r2,#0]
        0x00000aa6:    4770        pG      BX       lr
    CLK_DisableXtalRC
        0x00000aa8:    494c        LI      LDR      r1,[pc,#304] ; [0xbdc] = 0x50000200
        0x00000aaa:    6809        .h      LDR      r1,[r1,#0]
        0x00000aac:    4381        .C      BICS     r1,r1,r0
        0x00000aae:    4a4b        KJ      LDR      r2,[pc,#300] ; [0xbdc] = 0x50000200
        0x00000ab0:    6011        .`      STR      r1,[r2,#0]
        0x00000ab2:    4770        pG      BX       lr
    CLK_EnableModuleClock
        0x00000ab4:    b50e        ..      PUSH     {r1-r3,lr}
        0x00000ab6:    4b4a        JK      LDR      r3,[pc,#296] ; [0xbe0] = 0x4170
        0x00000ab8:    681a        .h      LDR      r2,[r3,#0]
        0x00000aba:    6859        Yh      LDR      r1,[r3,#4]
        0x00000abc:    689b        .h      LDR      r3,[r3,#8]
        0x00000abe:    9302        ..      STR      r3,[sp,#8]
        0x00000ac0:    9200        ..      STR      r2,[sp,#0]
        0x00000ac2:    9101        ..      STR      r1,[sp,#4]
        0x00000ac4:    0f81        ..      LSRS     r1,r0,#30
        0x00000ac6:    0089        ..      LSLS     r1,r1,#2
        0x00000ac8:    466a        jF      MOV      r2,sp
        0x00000aca:    5851        QX      LDR      r1,[r2,r1]
        0x00000acc:    4a43        CJ      LDR      r2,[pc,#268] ; [0xbdc] = 0x50000200
        0x00000ace:    1889        ..      ADDS     r1,r1,r2
        0x00000ad0:    6849        Ih      LDR      r1,[r1,#4]
        0x00000ad2:    06c3        ..      LSLS     r3,r0,#27
        0x00000ad4:    0edb        ..      LSRS     r3,r3,#27
        0x00000ad6:    2201        ."      MOVS     r2,#1
        0x00000ad8:    409a        .@      LSLS     r2,r2,r3
        0x00000ada:    4311        .C      ORRS     r1,r1,r2
        0x00000adc:    0f82        ..      LSRS     r2,r0,#30
        0x00000ade:    0092        ..      LSLS     r2,r2,#2
        0x00000ae0:    466b        kF      MOV      r3,sp
        0x00000ae2:    589a        .X      LDR      r2,[r3,r2]
        0x00000ae4:    4b3d        =K      LDR      r3,[pc,#244] ; [0xbdc] = 0x50000200
        0x00000ae6:    18d2        ..      ADDS     r2,r2,r3
        0x00000ae8:    6051        Q`      STR      r1,[r2,#4]
        0x00000aea:    bd0e        ..      POP      {r1-r3,pc}
    CLK_DisableModuleClock
        0x00000aec:    b50e        ..      PUSH     {r1-r3,lr}
        0x00000aee:    4b3c        <K      LDR      r3,[pc,#240] ; [0xbe0] = 0x4170
        0x00000af0:    330c        .3      ADDS     r3,r3,#0xc
        0x00000af2:    681a        .h      LDR      r2,[r3,#0]
        0x00000af4:    6859        Yh      LDR      r1,[r3,#4]
        0x00000af6:    689b        .h      LDR      r3,[r3,#8]
        0x00000af8:    9302        ..      STR      r3,[sp,#8]
        0x00000afa:    9200        ..      STR      r2,[sp,#0]
        0x00000afc:    9101        ..      STR      r1,[sp,#4]
        0x00000afe:    0f81        ..      LSRS     r1,r0,#30
        0x00000b00:    0089        ..      LSLS     r1,r1,#2
        0x00000b02:    466a        jF      MOV      r2,sp
        0x00000b04:    5851        QX      LDR      r1,[r2,r1]
        0x00000b06:    4a35        5J      LDR      r2,[pc,#212] ; [0xbdc] = 0x50000200
        0x00000b08:    1889        ..      ADDS     r1,r1,r2
        0x00000b0a:    6849        Ih      LDR      r1,[r1,#4]
        0x00000b0c:    06c3        ..      LSLS     r3,r0,#27
        0x00000b0e:    0edb        ..      LSRS     r3,r3,#27
        0x00000b10:    2201        ."      MOVS     r2,#1
        0x00000b12:    409a        .@      LSLS     r2,r2,r3
        0x00000b14:    4391        .C      BICS     r1,r1,r2
        0x00000b16:    0f82        ..      LSRS     r2,r0,#30
        0x00000b18:    0092        ..      LSLS     r2,r2,#2
        0x00000b1a:    466b        kF      MOV      r3,sp
        0x00000b1c:    589a        .X      LDR      r2,[r3,r2]
        0x00000b1e:    4b2f        /K      LDR      r3,[pc,#188] ; [0xbdc] = 0x50000200
        0x00000b20:    18d2        ..      ADDS     r2,r2,r3
        0x00000b22:    6051        Q`      STR      r1,[r2,#4]
        0x00000b24:    bd0e        ..      POP      {r1-r3,pc}
    CLK_EnableSysTick
        0x00000b26:    2200        ."      MOVS     r2,#0
        0x00000b28:    4b2e        .K      LDR      r3,[pc,#184] ; [0xbe4] = 0xe000e000
        0x00000b2a:    611a        .a      STR      r2,[r3,#0x10]
        0x00000b2c:    2804        .(      CMP      r0,#4
        0x00000b2e:    d106        ..      BNE      0xb3e ; CLK_EnableSysTick + 24
        0x00000b30:    461a        .F      MOV      r2,r3
        0x00000b32:    6912        .i      LDR      r2,[r2,#0x10]
        0x00000b34:    2304        .#      MOVS     r3,#4
        0x00000b36:    431a        .C      ORRS     r2,r2,r3
        0x00000b38:    4b2a        *K      LDR      r3,[pc,#168] ; [0xbe4] = 0xe000e000
        0x00000b3a:    611a        .a      STR      r2,[r3,#0x10]
        0x00000b3c:    e006        ..      B        0xb4c ; CLK_EnableSysTick + 38
        0x00000b3e:    4a27        'J      LDR      r2,[pc,#156] ; [0xbdc] = 0x50000200
        0x00000b40:    6912        .i      LDR      r2,[r2,#0x10]
        0x00000b42:    2338        8#      MOVS     r3,#0x38
        0x00000b44:    439a        .C      BICS     r2,r2,r3
        0x00000b46:    4302        .C      ORRS     r2,r2,r0
        0x00000b48:    4b24        $K      LDR      r3,[pc,#144] ; [0xbdc] = 0x50000200
        0x00000b4a:    611a        .a      STR      r2,[r3,#0x10]
        0x00000b4c:    4a25        %J      LDR      r2,[pc,#148] ; [0xbe4] = 0xe000e000
        0x00000b4e:    6151        Qa      STR      r1,[r2,#0x14]
        0x00000b50:    2200        ."      MOVS     r2,#0
        0x00000b52:    4b24        $K      LDR      r3,[pc,#144] ; [0xbe4] = 0xe000e000
        0x00000b54:    619a        .a      STR      r2,[r3,#0x18]
        0x00000b56:    461a        .F      MOV      r2,r3
        0x00000b58:    6912        .i      LDR      r2,[r2,#0x10]
        0x00000b5a:    2303        .#      MOVS     r3,#3
        0x00000b5c:    431a        .C      ORRS     r2,r2,r3
        0x00000b5e:    4b21        !K      LDR      r3,[pc,#132] ; [0xbe4] = 0xe000e000
        0x00000b60:    611a        .a      STR      r2,[r3,#0x10]
        0x00000b62:    4770        pG      BX       lr
    CLK_DisableSysTick
        0x00000b64:    2000        .       MOVS     r0,#0
        0x00000b66:    491f        .I      LDR      r1,[pc,#124] ; [0xbe4] = 0xe000e000
        0x00000b68:    6108        .a      STR      r0,[r1,#0x10]
        0x00000b6a:    4770        pG      BX       lr
    CLK_GetPLLClockFreq
        0x00000b6c:    b5fe        ..      PUSH     {r1-r7,lr}
        0x00000b6e:    2000        .       MOVS     r0,#0
        0x00000b70:    9002        ..      STR      r0,[sp,#8]
        0x00000b72:    a01d        ..      ADR      r0,{pc}+0x76 ; 0xbe8
        0x00000b74:    6800        .h      LDR      r0,[r0,#0]
        0x00000b76:    9000        ..      STR      r0,[sp,#0]
        0x00000b78:    4818        .H      LDR      r0,[pc,#96] ; [0xbdc] = 0x50000200
        0x00000b7a:    6a04        .j      LDR      r4,[r0,#0x20]
        0x00000b7c:    1300        ..      ASRS     r0,r0,#12
        0x00000b7e:    4020         @      ANDS     r0,r0,r4
        0x00000b80:    2800        .(      CMP      r0,#0
        0x00000b82:    d001        ..      BEQ      0xb88 ; CLK_GetPLLClockFreq + 28
        0x00000b84:    2000        .       MOVS     r0,#0
        0x00000b86:    bdfe        ..      POP      {r1-r7,pc}
        0x00000b88:    2001        .       MOVS     r0,#1
        0x00000b8a:    04c0        ..      LSLS     r0,r0,#19
        0x00000b8c:    4020         @      ANDS     r0,r0,r4
        0x00000b8e:    2800        .(      CMP      r0,#0
        0x00000b90:    d001        ..      BEQ      0xb96 ; CLK_GetPLLClockFreq + 42
        0x00000b92:    4d16        .M      LDR      r5,[pc,#88] ; [0xbec] = 0x1518000
        0x00000b94:    e000        ..      B        0xb98 ; CLK_GetPLLClockFreq + 44
        0x00000b96:    4d16        .M      LDR      r5,[pc,#88] ; [0xbf0] = 0xb71b00
        0x00000b98:    2001        .       MOVS     r0,#1
        0x00000b9a:    0440        @.      LSLS     r0,r0,#17
        0x00000b9c:    4020         @      ANDS     r0,r0,r4
        0x00000b9e:    2800        .(      CMP      r0,#0
        0x00000ba0:    d001        ..      BEQ      0xba6 ; CLK_GetPLLClockFreq + 58
        0x00000ba2:    4628        (F      MOV      r0,r5
        0x00000ba4:    e7ef        ..      B        0xb86 ; CLK_GetPLLClockFreq + 26
        0x00000ba6:    2003        .       MOVS     r0,#3
        0x00000ba8:    0380        ..      LSLS     r0,r0,#14
        0x00000baa:    4020         @      ANDS     r0,r0,r4
        0x00000bac:    0b80        ..      LSRS     r0,r0,#14
        0x00000bae:    4669        iF      MOV      r1,sp
        0x00000bb0:    5c0a        .\      LDRB     r2,[r1,r0]
        0x00000bb2:    9201        ..      STR      r2,[sp,#4]
        0x00000bb4:    05e0        ..      LSLS     r0,r4,#23
        0x00000bb6:    0dc0        ..      LSRS     r0,r0,#23
        0x00000bb8:    1c86        ..      ADDS     r6,r0,#2
        0x00000bba:    201f        .       MOVS     r0,#0x1f
        0x00000bbc:    0240        @.      LSLS     r0,r0,#9
        0x00000bbe:    4020         @      ANDS     r0,r0,r4
        0x00000bc0:    0a40        @.      LSRS     r0,r0,#9
        0x00000bc2:    1c87        ..      ADDS     r7,r0,#2
        0x00000bc4:    9a01        ..      LDR      r2,[sp,#4]
        0x00000bc6:    437a        zC      MULS     r2,r7,r2
        0x00000bc8:    4611        .F      MOV      r1,r2
        0x00000bca:    08aa        ..      LSRS     r2,r5,#2
        0x00000bcc:    4372        rC      MULS     r2,r6,r2
        0x00000bce:    4610        .F      MOV      r0,r2
        0x00000bd0:    f003f878    ..x.    BL       __aeabi_uidiv ; 0x3cc4
        0x00000bd4:    0080        ..      LSLS     r0,r0,#2
        0x00000bd6:    9002        ..      STR      r0,[sp,#8]
        0x00000bd8:    9802        ..      LDR      r0,[sp,#8]
        0x00000bda:    e7d4        ..      B        0xb86 ; CLK_GetPLLClockFreq + 26
    $d
        0x00000bdc:    50000200    ...P    DCD    1342177792
        0x00000be0:    00004170    pA..    DCD    16752
        0x00000be4:    e000e000    ....    DCD    3758153728
        0x00000be8:    04020201    ....    DCD    67240449
        0x00000bec:    01518000    ..Q.    DCD    22118400
        0x00000bf0:    00b71b00    ....    DCD    12000000
    $t
    .text
    SYS_ClearResetSrc
        0x00000bf4:    2105        .!      MOVS     r1,#5
        0x00000bf6:    0709        ..      LSLS     r1,r1,#28
        0x00000bf8:    6048        H`      STR      r0,[r1,#4]
        0x00000bfa:    4770        pG      BX       lr
    SYS_GetBODStatus
        0x00000bfc:    2005        .       MOVS     r0,#5
        0x00000bfe:    0700        ..      LSLS     r0,r0,#28
        0x00000c00:    6980        .i      LDR      r0,[r0,#0x18]
        0x00000c02:    2140        @!      MOVS     r1,#0x40
        0x00000c04:    4008        .@      ANDS     r0,r0,r1
        0x00000c06:    0980        ..      LSRS     r0,r0,#6
        0x00000c08:    4770        pG      BX       lr
    SYS_GetResetSrc
        0x00000c0a:    2005        .       MOVS     r0,#5
        0x00000c0c:    0700        ..      LSLS     r0,r0,#28
        0x00000c0e:    6840        @h      LDR      r0,[r0,#4]
        0x00000c10:    4770        pG      BX       lr
    SYS_IsRegLocked
        0x00000c12:    482b        +H      LDR      r0,[pc,#172] ; [0xcc0] = 0x50000100
        0x00000c14:    6800        .h      LDR      r0,[r0,#0]
        0x00000c16:    07c0        ..      LSLS     r0,r0,#31
        0x00000c18:    0fc0        ..      LSRS     r0,r0,#31
        0x00000c1a:    2101        .!      MOVS     r1,#1
        0x00000c1c:    4048        H@      EORS     r0,r0,r1
        0x00000c1e:    4770        pG      BX       lr
    SYS_ReadPDID
        0x00000c20:    2005        .       MOVS     r0,#5
        0x00000c22:    0700        ..      LSLS     r0,r0,#28
        0x00000c24:    6800        .h      LDR      r0,[r0,#0]
        0x00000c26:    4770        pG      BX       lr
    SYS_ResetChip
        0x00000c28:    2005        .       MOVS     r0,#5
        0x00000c2a:    0700        ..      LSLS     r0,r0,#28
        0x00000c2c:    6880        .h      LDR      r0,[r0,#8]
        0x00000c2e:    2101        .!      MOVS     r1,#1
        0x00000c30:    4308        .C      ORRS     r0,r0,r1
        0x00000c32:    2105        .!      MOVS     r1,#5
        0x00000c34:    0709        ..      LSLS     r1,r1,#28
        0x00000c36:    6088        .`      STR      r0,[r1,#8]
        0x00000c38:    4770        pG      BX       lr
    SYS_ResetCPU
        0x00000c3a:    2005        .       MOVS     r0,#5
        0x00000c3c:    0700        ..      LSLS     r0,r0,#28
        0x00000c3e:    6880        .h      LDR      r0,[r0,#8]
        0x00000c40:    2102        .!      MOVS     r1,#2
        0x00000c42:    4308        .C      ORRS     r0,r0,r1
        0x00000c44:    2105        .!      MOVS     r1,#5
        0x00000c46:    0709        ..      LSLS     r1,r1,#28
        0x00000c48:    6088        .`      STR      r0,[r1,#8]
        0x00000c4a:    4770        pG      BX       lr
    SYS_ResetModule
        0x00000c4c:    0e01        ..      LSRS     r1,r0,#24
        0x00000c4e:    2205        ."      MOVS     r2,#5
        0x00000c50:    0712        ..      LSLS     r2,r2,#28
        0x00000c52:    1889        ..      ADDS     r1,r1,r2
        0x00000c54:    6889        .h      LDR      r1,[r1,#8]
        0x00000c56:    2201        ."      MOVS     r2,#1
        0x00000c58:    4082        .@      LSLS     r2,r2,r0
        0x00000c5a:    4311        .C      ORRS     r1,r1,r2
        0x00000c5c:    0e02        ..      LSRS     r2,r0,#24
        0x00000c5e:    2305        .#      MOVS     r3,#5
        0x00000c60:    071b        ..      LSLS     r3,r3,#28
        0x00000c62:    18d2        ..      ADDS     r2,r2,r3
        0x00000c64:    6091        .`      STR      r1,[r2,#8]
        0x00000c66:    0e01        ..      LSRS     r1,r0,#24
        0x00000c68:    461a        .F      MOV      r2,r3
        0x00000c6a:    1889        ..      ADDS     r1,r1,r2
        0x00000c6c:    688a        .h      LDR      r2,[r1,#8]
        0x00000c6e:    2101        .!      MOVS     r1,#1
        0x00000c70:    4081        .@      LSLS     r1,r1,r0
        0x00000c72:    438a        .C      BICS     r2,r2,r1
        0x00000c74:    0e01        ..      LSRS     r1,r0,#24
        0x00000c76:    18c9        ..      ADDS     r1,r1,r3
        0x00000c78:    608a        .`      STR      r2,[r1,#8]
        0x00000c7a:    4770        pG      BX       lr
    SYS_EnableBOD
        0x00000c7c:    2205        ."      MOVS     r2,#5
        0x00000c7e:    0712        ..      LSLS     r2,r2,#28
        0x00000c80:    6992        .i      LDR      r2,[r2,#0x18]
        0x00000c82:    2301        .#      MOVS     r3,#1
        0x00000c84:    431a        .C      ORRS     r2,r2,r3
        0x00000c86:    2305        .#      MOVS     r3,#5
        0x00000c88:    071b        ..      LSLS     r3,r3,#28
        0x00000c8a:    619a        .a      STR      r2,[r3,#0x18]
        0x00000c8c:    461a        .F      MOV      r2,r3
        0x00000c8e:    6992        .i      LDR      r2,[r2,#0x18]
        0x00000c90:    2308        .#      MOVS     r3,#8
        0x00000c92:    439a        .C      BICS     r2,r2,r3
        0x00000c94:    4302        .C      ORRS     r2,r2,r0
        0x00000c96:    2305        .#      MOVS     r3,#5
        0x00000c98:    071b        ..      LSLS     r3,r3,#28
        0x00000c9a:    619a        .a      STR      r2,[r3,#0x18]
        0x00000c9c:    461a        .F      MOV      r2,r3
        0x00000c9e:    6992        .i      LDR      r2,[r2,#0x18]
        0x00000ca0:    2306        .#      MOVS     r3,#6
        0x00000ca2:    439a        .C      BICS     r2,r2,r3
        0x00000ca4:    430a        .C      ORRS     r2,r2,r1
        0x00000ca6:    2305        .#      MOVS     r3,#5
        0x00000ca8:    071b        ..      LSLS     r3,r3,#28
        0x00000caa:    619a        .a      STR      r2,[r3,#0x18]
        0x00000cac:    4770        pG      BX       lr
    SYS_DisableBOD
        0x00000cae:    2005        .       MOVS     r0,#5
        0x00000cb0:    0700        ..      LSLS     r0,r0,#28
        0x00000cb2:    6980        .i      LDR      r0,[r0,#0x18]
        0x00000cb4:    0840        @.      LSRS     r0,r0,#1
        0x00000cb6:    0040        @.      LSLS     r0,r0,#1
        0x00000cb8:    2105        .!      MOVS     r1,#5
        0x00000cba:    0709        ..      LSLS     r1,r1,#28
        0x00000cbc:    6188        .a      STR      r0,[r1,#0x18]
        0x00000cbe:    4770        pG      BX       lr
    $d
        0x00000cc0:    50000100    ...P    DCD    1342177536
    $t
    .text
    CLK_GetPLLClockFreq
        0x00000cc4:    b5fe        ..      PUSH     {r1-r7,lr}
        0x00000cc6:    2000        .       MOVS     r0,#0
        0x00000cc8:    9002        ..      STR      r0,[sp,#8]
        0x00000cca:    a0fb        ..      ADR      r0,{pc}+0x3ee ; 0x10b8
        0x00000ccc:    6800        .h      LDR      r0,[r0,#0]
        0x00000cce:    9000        ..      STR      r0,[sp,#0]
        0x00000cd0:    48fa        .H      LDR      r0,[pc,#1000] ; [0x10bc] = 0x50000200
        0x00000cd2:    6a04        .j      LDR      r4,[r0,#0x20]
        0x00000cd4:    1300        ..      ASRS     r0,r0,#12
        0x00000cd6:    4020         @      ANDS     r0,r0,r4
        0x00000cd8:    2800        .(      CMP      r0,#0
        0x00000cda:    d001        ..      BEQ      0xce0 ; CLK_GetPLLClockFreq + 28
        0x00000cdc:    2000        .       MOVS     r0,#0
        0x00000cde:    bdfe        ..      POP      {r1-r7,pc}
        0x00000ce0:    2001        .       MOVS     r0,#1
        0x00000ce2:    04c0        ..      LSLS     r0,r0,#19
        0x00000ce4:    4020         @      ANDS     r0,r0,r4
        0x00000ce6:    2800        .(      CMP      r0,#0
        0x00000ce8:    d001        ..      BEQ      0xcee ; CLK_GetPLLClockFreq + 42
        0x00000cea:    4df5        .M      LDR      r5,[pc,#980] ; [0x10c0] = 0x1518000
        0x00000cec:    e000        ..      B        0xcf0 ; CLK_GetPLLClockFreq + 44
        0x00000cee:    4df5        .M      LDR      r5,[pc,#980] ; [0x10c4] = 0xb71b00
        0x00000cf0:    2001        .       MOVS     r0,#1
        0x00000cf2:    0440        @.      LSLS     r0,r0,#17
        0x00000cf4:    4020         @      ANDS     r0,r0,r4
        0x00000cf6:    2800        .(      CMP      r0,#0
        0x00000cf8:    d001        ..      BEQ      0xcfe ; CLK_GetPLLClockFreq + 58
        0x00000cfa:    4628        (F      MOV      r0,r5
        0x00000cfc:    e7ef        ..      B        0xcde ; CLK_GetPLLClockFreq + 26
        0x00000cfe:    2003        .       MOVS     r0,#3
        0x00000d00:    0380        ..      LSLS     r0,r0,#14
        0x00000d02:    4020         @      ANDS     r0,r0,r4
        0x00000d04:    0b80        ..      LSRS     r0,r0,#14
        0x00000d06:    4669        iF      MOV      r1,sp
        0x00000d08:    5c0a        .\      LDRB     r2,[r1,r0]
        0x00000d0a:    9201        ..      STR      r2,[sp,#4]
        0x00000d0c:    05e0        ..      LSLS     r0,r4,#23
        0x00000d0e:    0dc0        ..      LSRS     r0,r0,#23
        0x00000d10:    1c86        ..      ADDS     r6,r0,#2
        0x00000d12:    201f        .       MOVS     r0,#0x1f
        0x00000d14:    0240        @.      LSLS     r0,r0,#9
        0x00000d16:    4020         @      ANDS     r0,r0,r4
        0x00000d18:    0a40        @.      LSRS     r0,r0,#9
        0x00000d1a:    1c87        ..      ADDS     r7,r0,#2
        0x00000d1c:    9a01        ..      LDR      r2,[sp,#4]
        0x00000d1e:    437a        zC      MULS     r2,r7,r2
        0x00000d20:    4611        .F      MOV      r1,r2
        0x00000d22:    08aa        ..      LSRS     r2,r5,#2
        0x00000d24:    4372        rC      MULS     r2,r6,r2
        0x00000d26:    4610        .F      MOV      r0,r2
        0x00000d28:    f002ffcc    ....    BL       __aeabi_uidiv ; 0x3cc4
        0x00000d2c:    0080        ..      LSLS     r0,r0,#2
        0x00000d2e:    9002        ..      STR      r0,[sp,#8]
        0x00000d30:    9802        ..      LDR      r0,[sp,#8]
        0x00000d32:    e7d4        ..      B        0xcde ; CLK_GetPLLClockFreq + 26
    UART_ClearIntFlag
        0x00000d34:    2201        ."      MOVS     r2,#1
        0x00000d36:    0292        ..      LSLS     r2,r2,#10
        0x00000d38:    400a        .@      ANDS     r2,r2,r1
        0x00000d3a:    2a00        .*      CMP      r2,#0
        0x00000d3c:    d001        ..      BEQ      0xd42 ; UART_ClearIntFlag + 14
        0x00000d3e:    2268        h"      MOVS     r2,#0x68
        0x00000d40:    6182        .a      STR      r2,[r0,#0x18]
        0x00000d42:    2201        ."      MOVS     r2,#1
        0x00000d44:    02d2        ..      LSLS     r2,r2,#11
        0x00000d46:    400a        .@      ANDS     r2,r2,r1
        0x00000d48:    2a00        .*      CMP      r2,#0
        0x00000d4a:    d003        ..      BEQ      0xd54 ; UART_ClearIntFlag + 32
        0x00000d4c:    6942        Bi      LDR      r2,[r0,#0x14]
        0x00000d4e:    2301        .#      MOVS     r3,#1
        0x00000d50:    431a        .C      ORRS     r2,r2,r3
        0x00000d52:    6142        Ba      STR      r2,[r0,#0x14]
        0x00000d54:    2201        ."      MOVS     r2,#1
        0x00000d56:    0352        R.      LSLS     r2,r2,#13
        0x00000d58:    400a        .@      ANDS     r2,r2,r1
        0x00000d5a:    2a00        .*      CMP      r2,#0
        0x00000d5c:    d001        ..      BEQ      0xd62 ; UART_ClearIntFlag + 46
        0x00000d5e:    4ada        .J      LDR      r2,[pc,#872] ; [0x10c8] = 0x1000001
        0x00000d60:    6182        .a      STR      r2,[r0,#0x18]
        0x00000d62:    2201        ."      MOVS     r2,#1
        0x00000d64:    0392        ..      LSLS     r2,r2,#14
        0x00000d66:    400a        .@      ANDS     r2,r2,r1
        0x00000d68:    2a00        .*      CMP      r2,#0
        0x00000d6a:    d001        ..      BEQ      0xd70 ; UART_ClearIntFlag + 60
        0x00000d6c:    6c42        Bl      LDR      r2,[r0,#0x44]
        0x00000d6e:    6442        Bd      STR      r2,[r0,#0x44]
        0x00000d70:    2201        ."      MOVS     r2,#1
        0x00000d72:    03d2        ..      LSLS     r2,r2,#15
        0x00000d74:    400a        .@      ANDS     r2,r2,r1
        0x00000d76:    2a00        .*      CMP      r2,#0
        0x00000d78:    d003        ..      BEQ      0xd82 ; UART_ClearIntFlag + 78
        0x00000d7a:    2280        ."      MOVS     r2,#0x80
        0x00000d7c:    61c2        .a      STR      r2,[r0,#0x1c]
        0x00000d7e:    6b82        .k      LDR      r2,[r0,#0x38]
        0x00000d80:    6382        .c      STR      r2,[r0,#0x38]
        0x00000d82:    4770        pG      BX       lr
    UART_Close
        0x00000d84:    2100        .!      MOVS     r1,#0
        0x00000d86:    6041        A`      STR      r1,[r0,#4]
        0x00000d88:    4770        pG      BX       lr
    UART_DisableFlowCtrl
        0x00000d8a:    6841        Ah      LDR      r1,[r0,#4]
        0x00000d8c:    2203        ."      MOVS     r2,#3
        0x00000d8e:    0312        ..      LSLS     r2,r2,#12
        0x00000d90:    4391        .C      BICS     r1,r1,r2
        0x00000d92:    6041        A`      STR      r1,[r0,#4]
        0x00000d94:    4770        pG      BX       lr
    UART_DisableInt
        0x00000d96:    b570        p.      PUSH     {r4-r6,lr}
        0x00000d98:    4604        .F      MOV      r4,r0
        0x00000d9a:    460d        .F      MOV      r5,r1
        0x00000d9c:    6860        `h      LDR      r0,[r4,#4]
        0x00000d9e:    43a8        .C      BICS     r0,r0,r5
        0x00000da0:    6060        ``      STR      r0,[r4,#4]
        0x00000da2:    48ca        .H      LDR      r0,[pc,#808] ; [0x10cc] = 0x40050000
        0x00000da4:    4284        .B      CMP      r4,r0
        0x00000da6:    d103        ..      BNE      0xdb0 ; UART_DisableInt + 26
        0x00000da8:    200c        .       MOVS     r0,#0xc
        0x00000daa:    f000f9a2    ....    BL       NVIC_DisableIRQ ; 0x10f2
        0x00000dae:    e009        ..      B        0xdc4 ; UART_DisableInt + 46
        0x00000db0:    48c7        .H      LDR      r0,[pc,#796] ; [0x10d0] = 0x40150000
        0x00000db2:    4284        .B      CMP      r4,r0
        0x00000db4:    d103        ..      BNE      0xdbe ; UART_DisableInt + 40
        0x00000db6:    200d        .       MOVS     r0,#0xd
        0x00000db8:    f000f99b    ....    BL       NVIC_DisableIRQ ; 0x10f2
        0x00000dbc:    e002        ..      B        0xdc4 ; UART_DisableInt + 46
        0x00000dbe:    200c        .       MOVS     r0,#0xc
        0x00000dc0:    f000f997    ....    BL       NVIC_DisableIRQ ; 0x10f2
        0x00000dc4:    bd70        p.      POP      {r4-r6,pc}
    UART_EnableFlowCtrl
        0x00000dc6:    6901        .i      LDR      r1,[r0,#0x10]
        0x00000dc8:    2201        ."      MOVS     r2,#1
        0x00000dca:    0252        R.      LSLS     r2,r2,#9
        0x00000dcc:    4311        .C      ORRS     r1,r1,r2
        0x00000dce:    6101        .a      STR      r1,[r0,#0x10]
        0x00000dd0:    6941        Ai      LDR      r1,[r0,#0x14]
        0x00000dd2:    1052        R.      ASRS     r2,r2,#1
        0x00000dd4:    4311        .C      ORRS     r1,r1,r2
        0x00000dd6:    6141        Aa      STR      r1,[r0,#0x14]
        0x00000dd8:    6841        Ah      LDR      r1,[r0,#4]
        0x00000dda:    2203        ."      MOVS     r2,#3
        0x00000ddc:    0312        ..      LSLS     r2,r2,#12
        0x00000dde:    4311        .C      ORRS     r1,r1,r2
        0x00000de0:    6041        A`      STR      r1,[r0,#4]
        0x00000de2:    4770        pG      BX       lr
    UART_EnableInt
        0x00000de4:    b570        p.      PUSH     {r4-r6,lr}
        0x00000de6:    4604        .F      MOV      r4,r0
        0x00000de8:    460d        .F      MOV      r5,r1
        0x00000dea:    6860        `h      LDR      r0,[r4,#4]
        0x00000dec:    4328        (C      ORRS     r0,r0,r5
        0x00000dee:    6060        ``      STR      r0,[r4,#4]
        0x00000df0:    48b6        .H      LDR      r0,[pc,#728] ; [0x10cc] = 0x40050000
        0x00000df2:    4284        .B      CMP      r4,r0
        0x00000df4:    d103        ..      BNE      0xdfe ; UART_EnableInt + 26
        0x00000df6:    200c        .       MOVS     r0,#0xc
        0x00000df8:    f000f974    ..t.    BL       NVIC_EnableIRQ ; 0x10e4
        0x00000dfc:    e009        ..      B        0xe12 ; UART_EnableInt + 46
        0x00000dfe:    48b4        .H      LDR      r0,[pc,#720] ; [0x10d0] = 0x40150000
        0x00000e00:    4284        .B      CMP      r4,r0
        0x00000e02:    d103        ..      BNE      0xe0c ; UART_EnableInt + 40
        0x00000e04:    200d        .       MOVS     r0,#0xd
        0x00000e06:    f000f96d    ..m.    BL       NVIC_EnableIRQ ; 0x10e4
        0x00000e0a:    e002        ..      B        0xe12 ; UART_EnableInt + 46
        0x00000e0c:    200c        .       MOVS     r0,#0xc
        0x00000e0e:    f000f969    ..i.    BL       NVIC_EnableIRQ ; 0x10e4
        0x00000e12:    bd70        p.      POP      {r4-r6,pc}
    UART_Open
        0x00000e14:    b5f0        ..      PUSH     {r4-r7,lr}
        0x00000e16:    b087        ..      SUB      sp,sp,#0x1c
        0x00000e18:    4604        .F      MOV      r4,r0
        0x00000e1a:    460d        .F      MOV      r5,r1
        0x00000e1c:    48ad        .H      LDR      r0,[pc,#692] ; [0x10d4] = 0x4188
        0x00000e1e:    4601        .F      MOV      r1,r0
        0x00000e20:    c90e        ..      LDM      r1,{r1-r3}
        0x00000e22:    68c0        .h      LDR      r0,[r0,#0xc]
        0x00000e24:    ae03        ..      ADD      r6,sp,#0xc
        0x00000e26:    c60e        ..      STM      r6!,{r1-r3}
        0x00000e28:    9006        ..      STR      r0,[sp,#0x18]
        0x00000e2a:    2000        .       MOVS     r0,#0
        0x00000e2c:    9002        ..      STR      r0,[sp,#8]
        0x00000e2e:    48a3        .H      LDR      r0,[pc,#652] ; [0x10bc] = 0x50000200
        0x00000e30:    6940        @i      LDR      r0,[r0,#0x14]
        0x00000e32:    2103        .!      MOVS     r1,#3
        0x00000e34:    0609        ..      LSLS     r1,r1,#24
        0x00000e36:    4008        .@      ANDS     r0,r0,r1
        0x00000e38:    0e06        ..      LSRS     r6,r0,#24
        0x00000e3a:    48a0        .H      LDR      r0,[pc,#640] ; [0x10bc] = 0x50000200
        0x00000e3c:    6980        .i      LDR      r0,[r0,#0x18]
        0x00000e3e:    210f        .!      MOVS     r1,#0xf
        0x00000e40:    0209        ..      LSLS     r1,r1,#8
        0x00000e42:    4008        .@      ANDS     r0,r0,r1
        0x00000e44:    0a07        ..      LSRS     r7,r0,#8
        0x00000e46:    2000        .       MOVS     r0,#0
        0x00000e48:    6320         c      STR      r0,[r4,#0x30]
        0x00000e4a:    2003        .       MOVS     r0,#3
        0x00000e4c:    60e0        .`      STR      r0,[r4,#0xc]
        0x00000e4e:    68a0        .h      LDR      r0,[r4,#8]
        0x00000e50:    49a1        .I      LDR      r1,[pc,#644] ; [0x10d8] = 0xfff0ff0f
        0x00000e52:    4008        .@      ANDS     r0,r0,r1
        0x00000e54:    60a0        .`      STR      r0,[r4,#8]
        0x00000e56:    2e01        ..      CMP      r6,#1
        0x00000e58:    d104        ..      BNE      0xe64 ; UART_Open + 80
        0x00000e5a:    f7ffff33    ..3.    BL       CLK_GetPLLClockFreq ; 0xcc4
        0x00000e5e:    00b1        ..      LSLS     r1,r6,#2
        0x00000e60:    aa03        ..      ADD      r2,sp,#0xc
        0x00000e62:    5050        PP      STR      r0,[r2,r1]
        0x00000e64:    2d00        .-      CMP      r5,#0
        0x00000e66:    d026        &.      BEQ      0xeb6 ; UART_Open + 162
        0x00000e68:    00b1        ..      LSLS     r1,r6,#2
        0x00000e6a:    aa03        ..      ADD      r2,sp,#0xc
        0x00000e6c:    5850        PX      LDR      r0,[r2,r1]
        0x00000e6e:    1c79        y.      ADDS     r1,r7,#1
        0x00000e70:    f002ff28    ..(.    BL       __aeabi_uidiv ; 0x3cc4
        0x00000e74:    0869        i.      LSRS     r1,r5,#1
        0x00000e76:    1840        @.      ADDS     r0,r0,r1
        0x00000e78:    4629        )F      MOV      r1,r5
        0x00000e7a:    9001        ..      STR      r0,[sp,#4]
        0x00000e7c:    f002ff22    ..".    BL       __aeabi_uidiv ; 0x3cc4
        0x00000e80:    1e80        ..      SUBS     r0,r0,#2
        0x00000e82:    9002        ..      STR      r0,[sp,#8]
        0x00000e84:    4995        .I      LDR      r1,[pc,#596] ; [0x10dc] = 0xffff
        0x00000e86:    9802        ..      LDR      r0,[sp,#8]
        0x00000e88:    4288        .B      CMP      r0,r1
        0x00000e8a:    d90f        ..      BLS      0xeac ; UART_Open + 152
        0x00000e8c:    00b1        ..      LSLS     r1,r6,#2
        0x00000e8e:    aa03        ..      ADD      r2,sp,#0xc
        0x00000e90:    5850        PX      LDR      r0,[r2,r1]
        0x00000e92:    1c79        y.      ADDS     r1,r7,#1
        0x00000e94:    f002ff16    ....    BL       __aeabi_uidiv ; 0x3cc4
        0x00000e98:    00e9        ..      LSLS     r1,r5,#3
        0x00000e9a:    1840        @.      ADDS     r0,r0,r1
        0x00000e9c:    4629        )F      MOV      r1,r5
        0x00000e9e:    9001        ..      STR      r0,[sp,#4]
        0x00000ea0:    f002ff10    ....    BL       __aeabi_uidiv ; 0x3cc4
        0x00000ea4:    0900        ..      LSRS     r0,r0,#4
        0x00000ea6:    1e80        ..      SUBS     r0,r0,#2
        0x00000ea8:    6260        `b      STR      r0,[r4,#0x24]
        0x00000eaa:    e004        ..      B        0xeb6 ; UART_Open + 162
        0x00000eac:    2103        .!      MOVS     r1,#3
        0x00000eae:    0709        ..      LSLS     r1,r1,#28
        0x00000eb0:    9802        ..      LDR      r0,[sp,#8]
        0x00000eb2:    4308        .C      ORRS     r0,r0,r1
        0x00000eb4:    6260        `b      STR      r0,[r4,#0x24]
        0x00000eb6:    b007        ..      ADD      sp,sp,#0x1c
        0x00000eb8:    bdf0        ..      POP      {r4-r7,pc}
    UART_Read
        0x00000eba:    b570        p.      PUSH     {r4-r6,lr}
        0x00000ebc:    4603        .F      MOV      r3,r0
        0x00000ebe:    460c        .F      MOV      r4,r1
        0x00000ec0:    2100        .!      MOVS     r1,#0
        0x00000ec2:    e011        ..      B        0xee8 ; UART_Read + 46
        0x00000ec4:    2500        .%      MOVS     r5,#0
        0x00000ec6:    e006        ..      B        0xed6 ; UART_Read + 28
        0x00000ec8:    1c6d        m.      ADDS     r5,r5,#1
        0x00000eca:    2001        .       MOVS     r0,#1
        0x00000ecc:    0780        ..      LSLS     r0,r0,#30
        0x00000ece:    4285        .B      CMP      r5,r0
        0x00000ed0:    d301        ..      BCC      0xed6 ; UART_Read + 28
        0x00000ed2:    2000        .       MOVS     r0,#0
        0x00000ed4:    bd70        p.      POP      {r4-r6,pc}
        0x00000ed6:    6998        .i      LDR      r0,[r3,#0x18]
        0x00000ed8:    2601        .&      MOVS     r6,#1
        0x00000eda:    03b6        ..      LSLS     r6,r6,#14
        0x00000edc:    4030        0@      ANDS     r0,r0,r6
        0x00000ede:    2800        .(      CMP      r0,#0
        0x00000ee0:    d1f2        ..      BNE      0xec8 ; UART_Read + 14
        0x00000ee2:    6818        .h      LDR      r0,[r3,#0]
        0x00000ee4:    5460        `T      STRB     r0,[r4,r1]
        0x00000ee6:    1c49        I.      ADDS     r1,r1,#1
        0x00000ee8:    4291        .B      CMP      r1,r2
        0x00000eea:    d3eb        ..      BCC      0xec4 ; UART_Read + 10
        0x00000eec:    4608        .F      MOV      r0,r1
        0x00000eee:    e7f1        ..      B        0xed4 ; UART_Read + 26
    UART_SetLine_Config
        0x00000ef0:    b5ff        ..      PUSH     {r0-r7,lr}
        0x00000ef2:    b087        ..      SUB      sp,sp,#0x1c
        0x00000ef4:    4604        .F      MOV      r4,r0
        0x00000ef6:    460d        .F      MOV      r5,r1
        0x00000ef8:    4617        .F      MOV      r7,r2
        0x00000efa:    4876        vH      LDR      r0,[pc,#472] ; [0x10d4] = 0x4188
        0x00000efc:    3010        .0      ADDS     r0,r0,#0x10
        0x00000efe:    4601        .F      MOV      r1,r0
        0x00000f00:    c90e        ..      LDM      r1,{r1-r3}
        0x00000f02:    68c0        .h      LDR      r0,[r0,#0xc]
        0x00000f04:    ae02        ..      ADD      r6,sp,#8
        0x00000f06:    c60e        ..      STM      r6!,{r1-r3}
        0x00000f08:    9005        ..      STR      r0,[sp,#0x14]
        0x00000f0a:    2000        .       MOVS     r0,#0
        0x00000f0c:    9001        ..      STR      r0,[sp,#4]
        0x00000f0e:    486b        kH      LDR      r0,[pc,#428] ; [0x10bc] = 0x50000200
        0x00000f10:    6940        @i      LDR      r0,[r0,#0x14]
        0x00000f12:    2103        .!      MOVS     r1,#3
        0x00000f14:    0609        ..      LSLS     r1,r1,#24
        0x00000f16:    4008        .@      ANDS     r0,r0,r1
        0x00000f18:    0e06        ..      LSRS     r6,r0,#24
        0x00000f1a:    4868        hH      LDR      r0,[pc,#416] ; [0x10bc] = 0x50000200
        0x00000f1c:    6980        .i      LDR      r0,[r0,#0x18]
        0x00000f1e:    210f        .!      MOVS     r1,#0xf
        0x00000f20:    0209        ..      LSLS     r1,r1,#8
        0x00000f22:    4008        .@      ANDS     r0,r0,r1
        0x00000f24:    0a00        ..      LSRS     r0,r0,#8
        0x00000f26:    9006        ..      STR      r0,[sp,#0x18]
        0x00000f28:    2e01        ..      CMP      r6,#1
        0x00000f2a:    d104        ..      BNE      0xf36 ; UART_SetLine_Config + 70
        0x00000f2c:    f7fffeca    ....    BL       CLK_GetPLLClockFreq ; 0xcc4
        0x00000f30:    00b1        ..      LSLS     r1,r6,#2
        0x00000f32:    aa02        ..      ADD      r2,sp,#8
        0x00000f34:    5050        PP      STR      r0,[r2,r1]
        0x00000f36:    2d00        .-      CMP      r5,#0
        0x00000f38:    d028        (.      BEQ      0xf8c ; UART_SetLine_Config + 156
        0x00000f3a:    00b1        ..      LSLS     r1,r6,#2
        0x00000f3c:    aa02        ..      ADD      r2,sp,#8
        0x00000f3e:    5850        PX      LDR      r0,[r2,r1]
        0x00000f40:    9906        ..      LDR      r1,[sp,#0x18]
        0x00000f42:    1c49        I.      ADDS     r1,r1,#1
        0x00000f44:    f002febe    ....    BL       __aeabi_uidiv ; 0x3cc4
        0x00000f48:    0869        i.      LSRS     r1,r5,#1
        0x00000f4a:    1840        @.      ADDS     r0,r0,r1
        0x00000f4c:    4629        )F      MOV      r1,r5
        0x00000f4e:    9000        ..      STR      r0,[sp,#0]
        0x00000f50:    f002feb8    ....    BL       __aeabi_uidiv ; 0x3cc4
        0x00000f54:    1e80        ..      SUBS     r0,r0,#2
        0x00000f56:    9001        ..      STR      r0,[sp,#4]
        0x00000f58:    4960        `I      LDR      r1,[pc,#384] ; [0x10dc] = 0xffff
        0x00000f5a:    9801        ..      LDR      r0,[sp,#4]
        0x00000f5c:    4288        .B      CMP      r0,r1
        0x00000f5e:    d910        ..      BLS      0xf82 ; UART_SetLine_Config + 146
        0x00000f60:    00b1        ..      LSLS     r1,r6,#2
        0x00000f62:    aa02        ..      ADD      r2,sp,#8
        0x00000f64:    5850        PX      LDR      r0,[r2,r1]
        0x00000f66:    9906        ..      LDR      r1,[sp,#0x18]
        0x00000f68:    1c49        I.      ADDS     r1,r1,#1
        0x00000f6a:    f002feab    ....    BL       __aeabi_uidiv ; 0x3cc4
        0x00000f6e:    00e9        ..      LSLS     r1,r5,#3
        0x00000f70:    1840        @.      ADDS     r0,r0,r1
        0x00000f72:    4629        )F      MOV      r1,r5
        0x00000f74:    9000        ..      STR      r0,[sp,#0]
        0x00000f76:    f002fea5    ....    BL       __aeabi_uidiv ; 0x3cc4
        0x00000f7a:    0900        ..      LSRS     r0,r0,#4
        0x00000f7c:    1e80        ..      SUBS     r0,r0,#2
        0x00000f7e:    6260        `b      STR      r0,[r4,#0x24]
        0x00000f80:    e004        ..      B        0xf8c ; UART_SetLine_Config + 156
        0x00000f82:    2103        .!      MOVS     r1,#3
        0x00000f84:    0709        ..      LSLS     r1,r1,#28
        0x00000f86:    9801        ..      LDR      r0,[sp,#4]
        0x00000f88:    4308        .C      ORRS     r0,r0,r1
        0x00000f8a:    6260        `b      STR      r0,[r4,#0x24]
        0x00000f8c:    4638        8F      MOV      r0,r7
        0x00000f8e:    990a        ..      LDR      r1,[sp,#0x28]
        0x00000f90:    4308        .C      ORRS     r0,r0,r1
        0x00000f92:    9910        ..      LDR      r1,[sp,#0x40]
        0x00000f94:    4308        .C      ORRS     r0,r0,r1
        0x00000f96:    60e0        .`      STR      r0,[r4,#0xc]
        0x00000f98:    b00b        ..      ADD      sp,sp,#0x2c
        0x00000f9a:    bdf0        ..      POP      {r4-r7,pc}
    UART_SetTimeoutCnt
        0x00000f9c:    6a02        .j      LDR      r2,[r0,#0x20]
        0x00000f9e:    0a12        ..      LSRS     r2,r2,#8
        0x00000fa0:    0212        ..      LSLS     r2,r2,#8
        0x00000fa2:    430a        .C      ORRS     r2,r2,r1
        0x00000fa4:    6202        .b      STR      r2,[r0,#0x20]
        0x00000fa6:    6842        Bh      LDR      r2,[r0,#4]
        0x00000fa8:    2301        .#      MOVS     r3,#1
        0x00000faa:    02db        ..      LSLS     r3,r3,#11
        0x00000fac:    431a        .C      ORRS     r2,r2,r3
        0x00000fae:    6042        B`      STR      r2,[r0,#4]
        0x00000fb0:    4770        pG      BX       lr
    UART_SelectIrDAMode
        0x00000fb2:    b5f7        ..      PUSH     {r0-r2,r4-r7,lr}
        0x00000fb4:    b086        ..      SUB      sp,sp,#0x18
        0x00000fb6:    4604        .F      MOV      r4,r0
        0x00000fb8:    460e        .F      MOV      r6,r1
        0x00000fba:    4846        FH      LDR      r0,[pc,#280] ; [0x10d4] = 0x4188
        0x00000fbc:    3020         0      ADDS     r0,r0,#0x20
        0x00000fbe:    4601        .F      MOV      r1,r0
        0x00000fc0:    c90e        ..      LDM      r1,{r1-r3}
        0x00000fc2:    68c0        .h      LDR      r0,[r0,#0xc]
        0x00000fc4:    ad01        ..      ADD      r5,sp,#4
        0x00000fc6:    c50e        ..      STM      r5!,{r1-r3}
        0x00000fc8:    9004        ..      STR      r0,[sp,#0x10]
        0x00000fca:    2002        .       MOVS     r0,#2
        0x00000fcc:    6320         c      STR      r0,[r4,#0x30]
        0x00000fce:    483b        ;H      LDR      r0,[pc,#236] ; [0x10bc] = 0x50000200
        0x00000fd0:    6940        @i      LDR      r0,[r0,#0x14]
        0x00000fd2:    2103        .!      MOVS     r1,#3
        0x00000fd4:    0609        ..      LSLS     r1,r1,#24
        0x00000fd6:    4008        .@      ANDS     r0,r0,r1
        0x00000fd8:    0e07        ..      LSRS     r7,r0,#24
        0x00000fda:    4838        8H      LDR      r0,[pc,#224] ; [0x10bc] = 0x50000200
        0x00000fdc:    6980        .i      LDR      r0,[r0,#0x18]
        0x00000fde:    210f        .!      MOVS     r1,#0xf
        0x00000fe0:    0209        ..      LSLS     r1,r1,#8
        0x00000fe2:    4008        .@      ANDS     r0,r0,r1
        0x00000fe4:    0a00        ..      LSRS     r0,r0,#8
        0x00000fe6:    9005        ..      STR      r0,[sp,#0x14]
        0x00000fe8:    2f01        ./      CMP      r7,#1
        0x00000fea:    d104        ..      BNE      0xff6 ; UART_SelectIrDAMode + 68
        0x00000fec:    f7fffe6a    ..j.    BL       CLK_GetPLLClockFreq ; 0xcc4
        0x00000ff0:    00b9        ..      LSLS     r1,r7,#2
        0x00000ff2:    aa01        ..      ADD      r2,sp,#4
        0x00000ff4:    5050        PP      STR      r0,[r2,r1]
        0x00000ff6:    2e00        ..      CMP      r6,#0
        0x00000ff8:    d012        ..      BEQ      0x1020 ; UART_SelectIrDAMode + 110
        0x00000ffa:    00b9        ..      LSLS     r1,r7,#2
        0x00000ffc:    aa01        ..      ADD      r2,sp,#4
        0x00000ffe:    5850        PX      LDR      r0,[r2,r1]
        0x00001000:    9905        ..      LDR      r1,[sp,#0x14]
        0x00001002:    1c49        I.      ADDS     r1,r1,#1
        0x00001004:    f002fe5e    ..^.    BL       __aeabi_uidiv ; 0x3cc4
        0x00001008:    00f1        ..      LSLS     r1,r6,#3
        0x0000100a:    1840        @.      ADDS     r0,r0,r1
        0x0000100c:    4631        1F      MOV      r1,r6
        0x0000100e:    9000        ..      STR      r0,[sp,#0]
        0x00001010:    f002fe58    ..X.    BL       __aeabi_uidiv ; 0x3cc4
        0x00001014:    0900        ..      LSRS     r0,r0,#4
        0x00001016:    1e85        ..      SUBS     r5,r0,#2
        0x00001018:    4830        0H      LDR      r0,[pc,#192] ; [0x10dc] = 0xffff
        0x0000101a:    4285        .B      CMP      r5,r0
        0x0000101c:    d200        ..      BCS      0x1020 ; UART_SelectIrDAMode + 110
        0x0000101e:    6265        eb      STR      r5,[r4,#0x24]
        0x00001020:    9808        ..      LDR      r0,[sp,#0x20]
        0x00001022:    2800        .(      CMP      r0,#0
        0x00001024:    d108        ..      BNE      0x1038 ; UART_SelectIrDAMode + 134
        0x00001026:    6aa0        .j      LDR      r0,[r4,#0x28]
        0x00001028:    2140        @!      MOVS     r1,#0x40
        0x0000102a:    4308        .C      ORRS     r0,r0,r1
        0x0000102c:    62a0        .b      STR      r0,[r4,#0x28]
        0x0000102e:    6aa0        .j      LDR      r0,[r4,#0x28]
        0x00001030:    2102        .!      MOVS     r1,#2
        0x00001032:    4388        .C      BICS     r0,r0,r1
        0x00001034:    62a0        .b      STR      r0,[r4,#0x28]
        0x00001036:    e007        ..      B        0x1048 ; UART_SelectIrDAMode + 150
        0x00001038:    6aa0        .j      LDR      r0,[r4,#0x28]
        0x0000103a:    2120         !      MOVS     r1,#0x20
        0x0000103c:    4388        .C      BICS     r0,r0,r1
        0x0000103e:    62a0        .b      STR      r0,[r4,#0x28]
        0x00001040:    6aa0        .j      LDR      r0,[r4,#0x28]
        0x00001042:    2102        .!      MOVS     r1,#2
        0x00001044:    4308        .C      ORRS     r0,r0,r1
        0x00001046:    62a0        .b      STR      r0,[r4,#0x28]
        0x00001048:    b009        ..      ADD      sp,sp,#0x24
        0x0000104a:    bdf0        ..      POP      {r4-r7,pc}
    UART_SelectRS485Mode
        0x0000104c:    b510        ..      PUSH     {r4,lr}
        0x0000104e:    2303        .#      MOVS     r3,#3
        0x00001050:    6303        .c      STR      r3,[r0,#0x30]
        0x00001052:    6ac3        .j      LDR      r3,[r0,#0x2c]
        0x00001054:    4c22        "L      LDR      r4,[pc,#136] ; [0x10e0] = 0xfff8ff
        0x00001056:    4023        #@      ANDS     r3,r3,r4
        0x00001058:    62c3        .b      STR      r3,[r0,#0x2c]
        0x0000105a:    6ac3        .j      LDR      r3,[r0,#0x2c]
        0x0000105c:    0614        ..      LSLS     r4,r2,#24
        0x0000105e:    430c        .C      ORRS     r4,r4,r1
        0x00001060:    4323        #C      ORRS     r3,r3,r4
        0x00001062:    62c3        .b      STR      r3,[r0,#0x2c]
        0x00001064:    bd10        ..      POP      {r4,pc}
    UART_SelectLINMode
        0x00001066:    b510        ..      PUSH     {r4,lr}
        0x00001068:    2301        .#      MOVS     r3,#1
        0x0000106a:    6303        .c      STR      r3,[r0,#0x30]
        0x0000106c:    6ac3        .j      LDR      r3,[r0,#0x2c]
        0x0000106e:    24cf        .$      MOVS     r4,#0xcf
        0x00001070:    43a3        .C      BICS     r3,r3,r4
        0x00001072:    62c3        .b      STR      r3,[r0,#0x2c]
        0x00001074:    6ac3        .j      LDR      r3,[r0,#0x2c]
        0x00001076:    460c        .F      MOV      r4,r1
        0x00001078:    4314        .C      ORRS     r4,r4,r2
        0x0000107a:    4323        #C      ORRS     r3,r3,r4
        0x0000107c:    62c3        .b      STR      r3,[r0,#0x2c]
        0x0000107e:    bd10        ..      POP      {r4,pc}
    UART_Write
        0x00001080:    b570        p.      PUSH     {r4-r6,lr}
        0x00001082:    4603        .F      MOV      r3,r0
        0x00001084:    460c        .F      MOV      r4,r1
        0x00001086:    2100        .!      MOVS     r1,#0
        0x00001088:    e011        ..      B        0x10ae ; UART_Write + 46
        0x0000108a:    2500        .%      MOVS     r5,#0
        0x0000108c:    e006        ..      B        0x109c ; UART_Write + 28
        0x0000108e:    1c6d        m.      ADDS     r5,r5,#1
        0x00001090:    2001        .       MOVS     r0,#1
        0x00001092:    0780        ..      LSLS     r0,r0,#30
        0x00001094:    4285        .B      CMP      r5,r0
        0x00001096:    d301        ..      BCC      0x109c ; UART_Write + 28
        0x00001098:    2000        .       MOVS     r0,#0
        0x0000109a:    bd70        p.      POP      {r4-r6,pc}
        0x0000109c:    6998        .i      LDR      r0,[r3,#0x18]
        0x0000109e:    2601        .&      MOVS     r6,#1
        0x000010a0:    0736        6.      LSLS     r6,r6,#28
        0x000010a2:    4030        0@      ANDS     r0,r0,r6
        0x000010a4:    2800        .(      CMP      r0,#0
        0x000010a6:    d0f2        ..      BEQ      0x108e ; UART_Write + 14
        0x000010a8:    5c60        `\      LDRB     r0,[r4,r1]
        0x000010aa:    6018        .`      STR      r0,[r3,#0]
        0x000010ac:    1c49        I.      ADDS     r1,r1,#1
        0x000010ae:    4291        .B      CMP      r1,r2
        0x000010b0:    d1eb        ..      BNE      0x108a ; UART_Write + 10
        0x000010b2:    4608        .F      MOV      r0,r1
        0x000010b4:    e7f1        ..      B        0x109a ; UART_Write + 26
    $d
        0x000010b6:    0000        ..      DCW    0
        0x000010b8:    04020201    ....    DCD    67240449
        0x000010bc:    50000200    ...P    DCD    1342177792
        0x000010c0:    01518000    ..Q.    DCD    22118400
        0x000010c4:    00b71b00    ....    DCD    12000000
        0x000010c8:    01000001    ....    DCD    16777217
        0x000010cc:    40050000    ...@    DCD    1074069504
        0x000010d0:    40150000    ...@    DCD    1075118080
        0x000010d4:    00004188    .A..    DCD    16776
        0x000010d8:    fff0ff0f    ....    DCD    4293984015
        0x000010dc:    0000ffff    ....    DCD    65535
        0x000010e0:    00fff8ff    ....    DCD    16775423
    $t
    NVIC_EnableIRQ
        0x000010e4:    06c2        ..      LSLS     r2,r0,#27
        0x000010e6:    0ed2        ..      LSRS     r2,r2,#27
        0x000010e8:    2101        .!      MOVS     r1,#1
        0x000010ea:    4091        .@      LSLS     r1,r1,r2
        0x000010ec:    4a05        .J      LDR      r2,[pc,#20] ; [0x1104] = 0xe000e100
        0x000010ee:    6011        .`      STR      r1,[r2,#0]
        0x000010f0:    4770        pG      BX       lr
    NVIC_DisableIRQ
        0x000010f2:    06c2        ..      LSLS     r2,r0,#27
        0x000010f4:    0ed2        ..      LSRS     r2,r2,#27
        0x000010f6:    2101        .!      MOVS     r1,#1
        0x000010f8:    4091        .@      LSLS     r1,r1,r2
        0x000010fa:    4a02        .J      LDR      r2,[pc,#8] ; [0x1104] = 0xe000e100
        0x000010fc:    3280        .2      ADDS     r2,r2,#0x80
        0x000010fe:    6011        .`      STR      r1,[r2,#0]
        0x00001100:    4770        pG      BX       lr
    $d
        0x00001102:    0000        ..      DCW    0
        0x00001104:    e000e100    ....    DCD    3758153984
    $t
    .text
    vListInitialise
        0x00001108:    4601        .F      MOV      r1,r0
        0x0000110a:    3108        .1      ADDS     r1,r1,#8
        0x0000110c:    6041        A`      STR      r1,[r0,#4]
        0x0000110e:    2100        .!      MOVS     r1,#0
        0x00001110:    43c9        .C      MVNS     r1,r1
        0x00001112:    6081        .`      STR      r1,[r0,#8]
        0x00001114:    4601        .F      MOV      r1,r0
        0x00001116:    3108        .1      ADDS     r1,r1,#8
        0x00001118:    60c1        .`      STR      r1,[r0,#0xc]
        0x0000111a:    6101        .a      STR      r1,[r0,#0x10]
        0x0000111c:    2100        .!      MOVS     r1,#0
        0x0000111e:    6001        .`      STR      r1,[r0,#0]
        0x00001120:    4770        pG      BX       lr
    vListInitialiseItem
        0x00001122:    2100        .!      MOVS     r1,#0
        0x00001124:    6101        .a      STR      r1,[r0,#0x10]
        0x00001126:    4770        pG      BX       lr
    vListInsertEnd
        0x00001128:    6842        Bh      LDR      r2,[r0,#4]
        0x0000112a:    604a        J`      STR      r2,[r1,#4]
        0x0000112c:    6893        .h      LDR      r3,[r2,#8]
        0x0000112e:    608b        .`      STR      r3,[r1,#8]
        0x00001130:    6893        .h      LDR      r3,[r2,#8]
        0x00001132:    6059        Y`      STR      r1,[r3,#4]
        0x00001134:    6091        .`      STR      r1,[r2,#8]
        0x00001136:    6108        .a      STR      r0,[r1,#0x10]
        0x00001138:    6803        .h      LDR      r3,[r0,#0]
        0x0000113a:    1c5b        [.      ADDS     r3,r3,#1
        0x0000113c:    6003        .`      STR      r3,[r0,#0]
        0x0000113e:    4770        pG      BX       lr
    vListInsert
        0x00001140:    b510        ..      PUSH     {r4,lr}
        0x00001142:    4602        .F      MOV      r2,r0
        0x00001144:    680b        .h      LDR      r3,[r1,#0]
        0x00001146:    1c5c        \.      ADDS     r4,r3,#1
        0x00001148:    2c00        .,      CMP      r4,#0
        0x0000114a:    d101        ..      BNE      0x1150 ; vListInsert + 16
        0x0000114c:    6910        .i      LDR      r0,[r2,#0x10]
        0x0000114e:    e007        ..      B        0x1160 ; vListInsert + 32
        0x00001150:    4610        .F      MOV      r0,r2
        0x00001152:    3008        .0      ADDS     r0,r0,#8
        0x00001154:    e000        ..      B        0x1158 ; vListInsert + 24
        0x00001156:    6840        @h      LDR      r0,[r0,#4]
        0x00001158:    6844        Dh      LDR      r4,[r0,#4]
        0x0000115a:    6824        $h      LDR      r4,[r4,#0]
        0x0000115c:    429c        .B      CMP      r4,r3
        0x0000115e:    d9fa        ..      BLS      0x1156 ; vListInsert + 22
        0x00001160:    6844        Dh      LDR      r4,[r0,#4]
        0x00001162:    604c        L`      STR      r4,[r1,#4]
        0x00001164:    684c        Lh      LDR      r4,[r1,#4]
        0x00001166:    60a1        .`      STR      r1,[r4,#8]
        0x00001168:    6088        .`      STR      r0,[r1,#8]
        0x0000116a:    6041        A`      STR      r1,[r0,#4]
        0x0000116c:    610a        .a      STR      r2,[r1,#0x10]
        0x0000116e:    6814        .h      LDR      r4,[r2,#0]
        0x00001170:    1c64        d.      ADDS     r4,r4,#1
        0x00001172:    6014        .`      STR      r4,[r2,#0]
        0x00001174:    bd10        ..      POP      {r4,pc}
    uxListRemove
        0x00001176:    4601        .F      MOV      r1,r0
        0x00001178:    690a        .i      LDR      r2,[r1,#0x10]
        0x0000117a:    684b        Kh      LDR      r3,[r1,#4]
        0x0000117c:    6888        .h      LDR      r0,[r1,#8]
        0x0000117e:    6098        .`      STR      r0,[r3,#8]
        0x00001180:    688b        .h      LDR      r3,[r1,#8]
        0x00001182:    6848        Hh      LDR      r0,[r1,#4]
        0x00001184:    6058        X`      STR      r0,[r3,#4]
        0x00001186:    6850        Ph      LDR      r0,[r2,#4]
        0x00001188:    4288        .B      CMP      r0,r1
        0x0000118a:    d101        ..      BNE      0x1190 ; uxListRemove + 26
        0x0000118c:    6888        .h      LDR      r0,[r1,#8]
        0x0000118e:    6050        P`      STR      r0,[r2,#4]
        0x00001190:    2000        .       MOVS     r0,#0
        0x00001192:    6108        .a      STR      r0,[r1,#0x10]
        0x00001194:    6810        .h      LDR      r0,[r2,#0]
        0x00001196:    1e40        @.      SUBS     r0,r0,#1
        0x00001198:    6010        .`      STR      r0,[r2,#0]
        0x0000119a:    6810        .h      LDR      r0,[r2,#0]
        0x0000119c:    4770        pG      BX       lr
        0x0000119e:    0000        ..      MOVS     r0,r0
    .text
    prvInitialiseTaskLists
        0x000011a0:    b510        ..      PUSH     {r4,lr}
        0x000011a2:    2400        .$      MOVS     r4,#0
        0x000011a4:    e006        ..      B        0x11b4 ; prvInitialiseTaskLists + 20
        0x000011a6:    2114        .!      MOVS     r1,#0x14
        0x000011a8:    4361        aC      MULS     r1,r4,r1
        0x000011aa:    4afa        .J      LDR      r2,[pc,#1000] ; [0x1594] = 0x20000080
        0x000011ac:    1888        ..      ADDS     r0,r1,r2
        0x000011ae:    f7ffffab    ....    BL       vListInitialise ; 0x1108
        0x000011b2:    1c64        d.      ADDS     r4,r4,#1
        0x000011b4:    2c05        .,      CMP      r4,#5
        0x000011b6:    d3f6        ..      BCC      0x11a6 ; prvInitialiseTaskLists + 6
        0x000011b8:    48f7        .H      LDR      r0,[pc,#988] ; [0x1598] = 0x200000e4
        0x000011ba:    f7ffffa5    ....    BL       vListInitialise ; 0x1108
        0x000011be:    48f7        .H      LDR      r0,[pc,#988] ; [0x159c] = 0x200000f8
        0x000011c0:    f7ffffa2    ....    BL       vListInitialise ; 0x1108
        0x000011c4:    48f6        .H      LDR      r0,[pc,#984] ; [0x15a0] = 0x2000010c
        0x000011c6:    f7ffff9f    ....    BL       vListInitialise ; 0x1108
        0x000011ca:    48f6        .H      LDR      r0,[pc,#984] ; [0x15a4] = 0x20000120
        0x000011cc:    f7ffff9c    ....    BL       vListInitialise ; 0x1108
        0x000011d0:    48f5        .H      LDR      r0,[pc,#980] ; [0x15a8] = 0x20000134
        0x000011d2:    f7ffff99    ....    BL       vListInitialise ; 0x1108
        0x000011d6:    48f0        .H      LDR      r0,[pc,#960] ; [0x1598] = 0x200000e4
        0x000011d8:    49f4        .I      LDR      r1,[pc,#976] ; [0x15ac] = 0x20000018
        0x000011da:    6008        .`      STR      r0,[r1,#0]
        0x000011dc:    48ef        .H      LDR      r0,[pc,#956] ; [0x159c] = 0x200000f8
        0x000011de:    49f4        .I      LDR      r1,[pc,#976] ; [0x15b0] = 0x2000001c
        0x000011e0:    6008        .`      STR      r0,[r1,#0]
        0x000011e2:    bd10        ..      POP      {r4,pc}
    prvAddNewTaskToReadyList
        0x000011e4:    b510        ..      PUSH     {r4,lr}
        0x000011e6:    4604        .F      MOV      r4,r0
        0x000011e8:    f002fc9d    ....    BL       vPortEnterCritical ; 0x3b26
        0x000011ec:    48f1        .H      LDR      r0,[pc,#964] ; [0x15b4] = 0x20000024
        0x000011ee:    6800        .h      LDR      r0,[r0,#0]
        0x000011f0:    1c40        @.      ADDS     r0,r0,#1
        0x000011f2:    49f0        .I      LDR      r1,[pc,#960] ; [0x15b4] = 0x20000024
        0x000011f4:    6008        .`      STR      r0,[r1,#0]
        0x000011f6:    48f0        .H      LDR      r0,[pc,#960] ; [0x15b8] = 0x20000014
        0x000011f8:    6800        .h      LDR      r0,[r0,#0]
        0x000011fa:    2800        .(      CMP      r0,#0
        0x000011fc:    d108        ..      BNE      0x1210 ; prvAddNewTaskToReadyList + 44
        0x000011fe:    48ee        .H      LDR      r0,[pc,#952] ; [0x15b8] = 0x20000014
        0x00001200:    6004        .`      STR      r4,[r0,#0]
        0x00001202:    4608        .F      MOV      r0,r1
        0x00001204:    6800        .h      LDR      r0,[r0,#0]
        0x00001206:    2801        .(      CMP      r0,#1
        0x00001208:    d10e        ..      BNE      0x1228 ; prvAddNewTaskToReadyList + 68
        0x0000120a:    f7ffffc9    ....    BL       prvInitialiseTaskLists ; 0x11a0
        0x0000120e:    e00b        ..      B        0x1228 ; prvAddNewTaskToReadyList + 68
        0x00001210:    48ea        .H      LDR      r0,[pc,#936] ; [0x15bc] = 0x20000030
        0x00001212:    6800        .h      LDR      r0,[r0,#0]
        0x00001214:    2800        .(      CMP      r0,#0
        0x00001216:    d107        ..      BNE      0x1228 ; prvAddNewTaskToReadyList + 68
        0x00001218:    48e7        .H      LDR      r0,[pc,#924] ; [0x15b8] = 0x20000014
        0x0000121a:    6800        .h      LDR      r0,[r0,#0]
        0x0000121c:    6ac0        .j      LDR      r0,[r0,#0x2c]
        0x0000121e:    6ae1        .j      LDR      r1,[r4,#0x2c]
        0x00001220:    4288        .B      CMP      r0,r1
        0x00001222:    d801        ..      BHI      0x1228 ; prvAddNewTaskToReadyList + 68
        0x00001224:    48e4        .H      LDR      r0,[pc,#912] ; [0x15b8] = 0x20000014
        0x00001226:    6004        .`      STR      r4,[r0,#0]
        0x00001228:    48e5        .H      LDR      r0,[pc,#916] ; [0x15c0] = 0x20000040
        0x0000122a:    6800        .h      LDR      r0,[r0,#0]
        0x0000122c:    1c40        @.      ADDS     r0,r0,#1
        0x0000122e:    49e4        .I      LDR      r1,[pc,#912] ; [0x15c0] = 0x20000040
        0x00001230:    6008        .`      STR      r0,[r1,#0]
        0x00001232:    4608        .F      MOV      r0,r1
        0x00001234:    6800        .h      LDR      r0,[r0,#0]
        0x00001236:    6420         d      STR      r0,[r4,#0x40]
        0x00001238:    49e2        .I      LDR      r1,[pc,#904] ; [0x15c4] = 0x2000002c
        0x0000123a:    6ae0        .j      LDR      r0,[r4,#0x2c]
        0x0000123c:    6809        .h      LDR      r1,[r1,#0]
        0x0000123e:    4288        .B      CMP      r0,r1
        0x00001240:    d902        ..      BLS      0x1248 ; prvAddNewTaskToReadyList + 100
        0x00001242:    49e0        .I      LDR      r1,[pc,#896] ; [0x15c4] = 0x2000002c
        0x00001244:    6ae0        .j      LDR      r0,[r4,#0x2c]
        0x00001246:    6008        .`      STR      r0,[r1,#0]
        0x00001248:    2214        ."      MOVS     r2,#0x14
        0x0000124a:    6ae1        .j      LDR      r1,[r4,#0x2c]
        0x0000124c:    4351        QC      MULS     r1,r2,r1
        0x0000124e:    4ad1        .J      LDR      r2,[pc,#836] ; [0x1594] = 0x20000080
        0x00001250:    1888        ..      ADDS     r0,r1,r2
        0x00001252:    1d21        !.      ADDS     r1,r4,#4
        0x00001254:    f7ffff68    ..h.    BL       vListInsertEnd ; 0x1128
        0x00001258:    f002fc70    ..p.    BL       vPortExitCritical ; 0x3b3c
        0x0000125c:    48d7        .H      LDR      r0,[pc,#860] ; [0x15bc] = 0x20000030
        0x0000125e:    6800        .h      LDR      r0,[r0,#0]
        0x00001260:    2800        .(      CMP      r0,#0
        0x00001262:    d007        ..      BEQ      0x1274 ; prvAddNewTaskToReadyList + 144
        0x00001264:    48d4        .H      LDR      r0,[pc,#848] ; [0x15b8] = 0x20000014
        0x00001266:    6800        .h      LDR      r0,[r0,#0]
        0x00001268:    6ac0        .j      LDR      r0,[r0,#0x2c]
        0x0000126a:    6ae1        .j      LDR      r1,[r4,#0x2c]
        0x0000126c:    4288        .B      CMP      r0,r1
        0x0000126e:    d201        ..      BCS      0x1274 ; prvAddNewTaskToReadyList + 144
        0x00001270:    f002fc50    ..P.    BL       vPortYield ; 0x3b14
        0x00001274:    bd10        ..      POP      {r4,pc}
    prvInitialiseNewTask
        0x00001276:    b5ff        ..      PUSH     {r0-r7,lr}
        0x00001278:    b081        ..      SUB      sp,sp,#4
        0x0000127a:    460e        .F      MOV      r6,r1
        0x0000127c:    9f0a        ..      LDR      r7,[sp,#0x28]
        0x0000127e:    9c0c        ..      LDR      r4,[sp,#0x30]
        0x00001280:    2e00        ..      CMP      r6,#0
        0x00001282:    d102        ..      BNE      0x128a ; prvInitialiseNewTask + 20
        0x00001284:    b672        r.      CPSID    i
        0x00001286:    bf00        ..      NOP      
        0x00001288:    e7fe        ..      B        0x1288 ; prvInitialiseNewTask + 18
        0x0000128a:    9a03        ..      LDR      r2,[sp,#0xc]
        0x0000128c:    0091        ..      LSLS     r1,r2,#2
        0x0000128e:    22a5        ."      MOVS     r2,#0xa5
        0x00001290:    6b20         k      LDR      r0,[r4,#0x30]
        0x00001292:    f002fd3f    ..?.    BL       __aeabi_memset ; 0x3d14
        0x00001296:    6b21        !k      LDR      r1,[r4,#0x30]
        0x00001298:    9803        ..      LDR      r0,[sp,#0xc]
        0x0000129a:    1e40        @.      SUBS     r0,r0,#1
        0x0000129c:    0080        ..      LSLS     r0,r0,#2
        0x0000129e:    1808        ..      ADDS     r0,r1,r0
        0x000012a0:    9000        ..      STR      r0,[sp,#0]
        0x000012a2:    9800        ..      LDR      r0,[sp,#0]
        0x000012a4:    08c0        ..      LSRS     r0,r0,#3
        0x000012a6:    00c0        ..      LSLS     r0,r0,#3
        0x000012a8:    9000        ..      STR      r0,[sp,#0]
        0x000012aa:    9800        ..      LDR      r0,[sp,#0]
        0x000012ac:    0740        @.      LSLS     r0,r0,#29
        0x000012ae:    0f40        @.      LSRS     r0,r0,#29
        0x000012b0:    2800        .(      CMP      r0,#0
        0x000012b2:    d101        ..      BNE      0x12b8 ; prvInitialiseNewTask + 66
        0x000012b4:    2001        .       MOVS     r0,#1
        0x000012b6:    e000        ..      B        0x12ba ; prvInitialiseNewTask + 68
        0x000012b8:    2000        .       MOVS     r0,#0
        0x000012ba:    2800        .(      CMP      r0,#0
        0x000012bc:    d102        ..      BNE      0x12c4 ; prvInitialiseNewTask + 78
        0x000012be:    b672        r.      CPSID    i
        0x000012c0:    bf00        ..      NOP      
        0x000012c2:    e7fe        ..      B        0x12c2 ; prvInitialiseNewTask + 76
        0x000012c4:    2500        .%      MOVS     r5,#0
        0x000012c6:    e008        ..      B        0x12da ; prvInitialiseNewTask + 100
        0x000012c8:    5d71        q]      LDRB     r1,[r6,r5]
        0x000012ca:    4620         F      MOV      r0,r4
        0x000012cc:    3034        40      ADDS     r0,r0,#0x34
        0x000012ce:    5541        AU      STRB     r1,[r0,r5]
        0x000012d0:    5d70        p]      LDRB     r0,[r6,r5]
        0x000012d2:    2800        .(      CMP      r0,#0
        0x000012d4:    d100        ..      BNE      0x12d8 ; prvInitialiseNewTask + 98
        0x000012d6:    e002        ..      B        0x12de ; prvInitialiseNewTask + 104
        0x000012d8:    1c6d        m.      ADDS     r5,r5,#1
        0x000012da:    2d0a        .-      CMP      r5,#0xa
        0x000012dc:    d3f4        ..      BCC      0x12c8 ; prvInitialiseNewTask + 82
        0x000012de:    bf00        ..      NOP      
        0x000012e0:    2100        .!      MOVS     r1,#0
        0x000012e2:    203d        =       MOVS     r0,#0x3d
        0x000012e4:    5501        .U      STRB     r1,[r0,r4]
        0x000012e6:    2f05        ./      CMP      r7,#5
        0x000012e8:    d300        ..      BCC      0x12ec ; prvInitialiseNewTask + 118
        0x000012ea:    2704        .'      MOVS     r7,#4
        0x000012ec:    62e7        .b      STR      r7,[r4,#0x2c]
        0x000012ee:    64a7        .d      STR      r7,[r4,#0x48]
        0x000012f0:    2000        .       MOVS     r0,#0
        0x000012f2:    64e0        .d      STR      r0,[r4,#0x4c]
        0x000012f4:    1d20         .      ADDS     r0,r4,#4
        0x000012f6:    f7ffff14    ....    BL       vListInitialiseItem ; 0x1122
        0x000012fa:    4620         F      MOV      r0,r4
        0x000012fc:    3018        .0      ADDS     r0,r0,#0x18
        0x000012fe:    f7ffff10    ....    BL       vListInitialiseItem ; 0x1122
        0x00001302:    6124        $a      STR      r4,[r4,#0x10]
        0x00001304:    2005        .       MOVS     r0,#5
        0x00001306:    1bc0        ..      SUBS     r0,r0,r7
        0x00001308:    61a0        .a      STR      r0,[r4,#0x18]
        0x0000130a:    6264        db      STR      r4,[r4,#0x24]
        0x0000130c:    2000        .       MOVS     r0,#0
        0x0000130e:    6520         e      STR      r0,[r4,#0x50]
        0x00001310:    2100        .!      MOVS     r1,#0
        0x00001312:    2054        T       MOVS     r0,#0x54
        0x00001314:    5501        .U      STRB     r1,[r0,r4]
        0x00001316:    9a04        ..      LDR      r2,[sp,#0x10]
        0x00001318:    9901        ..      LDR      r1,[sp,#4]
        0x0000131a:    9800        ..      LDR      r0,[sp,#0]
        0x0000131c:    f002fbb4    ....    BL       pxPortInitialiseStack ; 0x3a88
        0x00001320:    6020         `      STR      r0,[r4,#0]
        0x00001322:    980b        ..      LDR      r0,[sp,#0x2c]
        0x00001324:    2800        .(      CMP      r0,#0
        0x00001326:    d001        ..      BEQ      0x132c ; prvInitialiseNewTask + 182
        0x00001328:    980b        ..      LDR      r0,[sp,#0x2c]
        0x0000132a:    6004        .`      STR      r4,[r0,#0]
        0x0000132c:    b005        ..      ADD      sp,sp,#0x14
        0x0000132e:    bdf0        ..      POP      {r4-r7,pc}
    xTaskCreate
        0x00001330:    b5ff        ..      PUSH     {r0-r7,lr}
        0x00001332:    b085        ..      SUB      sp,sp,#0x14
        0x00001334:    4617        .F      MOV      r7,r2
        0x00001336:    00b8        ..      LSLS     r0,r7,#2
        0x00001338:    f002fc3f    ..?.    BL       pvPortMalloc ; 0x3bba
        0x0000133c:    4606        .F      MOV      r6,r0
        0x0000133e:    2e00        ..      CMP      r6,#0
        0x00001340:    d00b        ..      BEQ      0x135a ; xTaskCreate + 42
        0x00001342:    2058        X       MOVS     r0,#0x58
        0x00001344:    f002fc39    ..9.    BL       pvPortMalloc ; 0x3bba
        0x00001348:    4604        .F      MOV      r4,r0
        0x0000134a:    2c00        .,      CMP      r4,#0
        0x0000134c:    d001        ..      BEQ      0x1352 ; xTaskCreate + 34
        0x0000134e:    6326        &c      STR      r6,[r4,#0x30]
        0x00001350:    e004        ..      B        0x135c ; xTaskCreate + 44
        0x00001352:    4630        0F      MOV      r0,r6
        0x00001354:    f002fc89    ....    BL       vPortFree ; 0x3c6a
        0x00001358:    e000        ..      B        0x135c ; xTaskCreate + 44
        0x0000135a:    2400        .$      MOVS     r4,#0
        0x0000135c:    2c00        .,      CMP      r4,#0
        0x0000135e:    d010        ..      BEQ      0x1382 ; xTaskCreate + 82
        0x00001360:    2200        ."      MOVS     r2,#0
        0x00001362:    990f        ..      LDR      r1,[sp,#0x3c]
        0x00001364:    980e        ..      LDR      r0,[sp,#0x38]
        0x00001366:    466b        kF      MOV      r3,sp
        0x00001368:    c313        ..      STM      r3!,{r0,r1,r4}
        0x0000136a:    9203        ..      STR      r2,[sp,#0xc]
        0x0000136c:    463a        :F      MOV      r2,r7
        0x0000136e:    9b08        ..      LDR      r3,[sp,#0x20]
        0x00001370:    9906        ..      LDR      r1,[sp,#0x18]
        0x00001372:    9805        ..      LDR      r0,[sp,#0x14]
        0x00001374:    f7ffff7f    ....    BL       prvInitialiseNewTask ; 0x1276
        0x00001378:    4620         F      MOV      r0,r4
        0x0000137a:    f7ffff33    ..3.    BL       prvAddNewTaskToReadyList ; 0x11e4
        0x0000137e:    2501        .%      MOVS     r5,#1
        0x00001380:    e001        ..      B        0x1386 ; xTaskCreate + 86
        0x00001382:    2500        .%      MOVS     r5,#0
        0x00001384:    43ed        .C      MVNS     r5,r5
        0x00001386:    4628        (F      MOV      r0,r5
        0x00001388:    b009        ..      ADD      sp,sp,#0x24
        0x0000138a:    bdf0        ..      POP      {r4-r7,pc}
    prvResetNextTaskUnblockTime
        0x0000138c:    4987        .I      LDR      r1,[pc,#540] ; [0x15ac] = 0x20000018
        0x0000138e:    6809        .h      LDR      r1,[r1,#0]
        0x00001390:    6809        .h      LDR      r1,[r1,#0]
        0x00001392:    2900        .)      CMP      r1,#0
        0x00001394:    d101        ..      BNE      0x139a ; prvResetNextTaskUnblockTime + 14
        0x00001396:    2101        .!      MOVS     r1,#1
        0x00001398:    e000        ..      B        0x139c ; prvResetNextTaskUnblockTime + 16
        0x0000139a:    2100        .!      MOVS     r1,#0
        0x0000139c:    2900        .)      CMP      r1,#0
        0x0000139e:    d004        ..      BEQ      0x13aa ; prvResetNextTaskUnblockTime + 30
        0x000013a0:    2100        .!      MOVS     r1,#0
        0x000013a2:    43c9        .C      MVNS     r1,r1
        0x000013a4:    4a88        .J      LDR      r2,[pc,#544] ; [0x15c8] = 0x20000044
        0x000013a6:    6011        .`      STR      r1,[r2,#0]
        0x000013a8:    e006        ..      B        0x13b8 ; prvResetNextTaskUnblockTime + 44
        0x000013aa:    4980        .I      LDR      r1,[pc,#512] ; [0x15ac] = 0x20000018
        0x000013ac:    6809        .h      LDR      r1,[r1,#0]
        0x000013ae:    68c9        .h      LDR      r1,[r1,#0xc]
        0x000013b0:    68c8        .h      LDR      r0,[r1,#0xc]
        0x000013b2:    4a85        .J      LDR      r2,[pc,#532] ; [0x15c8] = 0x20000044
        0x000013b4:    6841        Ah      LDR      r1,[r0,#4]
        0x000013b6:    6011        .`      STR      r1,[r2,#0]
        0x000013b8:    4770        pG      BX       lr
    prvDeleteTCB
        0x000013ba:    b510        ..      PUSH     {r4,lr}
        0x000013bc:    4604        .F      MOV      r4,r0
        0x000013be:    6b20         k      LDR      r0,[r4,#0x30]
        0x000013c0:    f002fc53    ..S.    BL       vPortFree ; 0x3c6a
        0x000013c4:    4620         F      MOV      r0,r4
        0x000013c6:    f002fc50    ..P.    BL       vPortFree ; 0x3c6a
        0x000013ca:    bd10        ..      POP      {r4,pc}
    vTaskDelete
        0x000013cc:    b570        p.      PUSH     {r4-r6,lr}
        0x000013ce:    4605        .F      MOV      r5,r0
        0x000013d0:    f002fba9    ....    BL       vPortEnterCritical ; 0x3b26
        0x000013d4:    2d00        .-      CMP      r5,#0
        0x000013d6:    d102        ..      BNE      0x13de ; vTaskDelete + 18
        0x000013d8:    4877        wH      LDR      r0,[pc,#476] ; [0x15b8] = 0x20000014
        0x000013da:    6800        .h      LDR      r0,[r0,#0]
        0x000013dc:    e000        ..      B        0x13e0 ; vTaskDelete + 20
        0x000013de:    4628        (F      MOV      r0,r5
        0x000013e0:    4604        .F      MOV      r4,r0
        0x000013e2:    1d20         .      ADDS     r0,r4,#4
        0x000013e4:    f7fffec7    ....    BL       uxListRemove ; 0x1176
        0x000013e8:    6aa0        .j      LDR      r0,[r4,#0x28]
        0x000013ea:    2800        .(      CMP      r0,#0
        0x000013ec:    d003        ..      BEQ      0x13f6 ; vTaskDelete + 42
        0x000013ee:    4620         F      MOV      r0,r4
        0x000013f0:    3018        .0      ADDS     r0,r0,#0x18
        0x000013f2:    f7fffec0    ....    BL       uxListRemove ; 0x1176
        0x000013f6:    4872        rH      LDR      r0,[pc,#456] ; [0x15c0] = 0x20000040
        0x000013f8:    6800        .h      LDR      r0,[r0,#0]
        0x000013fa:    1c40        @.      ADDS     r0,r0,#1
        0x000013fc:    4970        pI      LDR      r1,[pc,#448] ; [0x15c0] = 0x20000040
        0x000013fe:    6008        .`      STR      r0,[r1,#0]
        0x00001400:    486d        mH      LDR      r0,[pc,#436] ; [0x15b8] = 0x20000014
        0x00001402:    6800        .h      LDR      r0,[r0,#0]
        0x00001404:    4284        .B      CMP      r4,r0
        0x00001406:    d109        ..      BNE      0x141c ; vTaskDelete + 80
        0x00001408:    1d21        !.      ADDS     r1,r4,#4
        0x0000140a:    4866        fH      LDR      r0,[pc,#408] ; [0x15a4] = 0x20000120
        0x0000140c:    f7fffe8c    ....    BL       vListInsertEnd ; 0x1128
        0x00001410:    486e        nH      LDR      r0,[pc,#440] ; [0x15cc] = 0x20000020
        0x00001412:    6800        .h      LDR      r0,[r0,#0]
        0x00001414:    1c40        @.      ADDS     r0,r0,#1
        0x00001416:    496d        mI      LDR      r1,[pc,#436] ; [0x15cc] = 0x20000020
        0x00001418:    6008        .`      STR      r0,[r1,#0]
        0x0000141a:    e009        ..      B        0x1430 ; vTaskDelete + 100
        0x0000141c:    4865        eH      LDR      r0,[pc,#404] ; [0x15b4] = 0x20000024
        0x0000141e:    6800        .h      LDR      r0,[r0,#0]
        0x00001420:    1e40        @.      SUBS     r0,r0,#1
        0x00001422:    4964        dI      LDR      r1,[pc,#400] ; [0x15b4] = 0x20000024
        0x00001424:    6008        .`      STR      r0,[r1,#0]
        0x00001426:    4620         F      MOV      r0,r4
        0x00001428:    f7ffffc7    ....    BL       prvDeleteTCB ; 0x13ba
        0x0000142c:    f7ffffae    ....    BL       prvResetNextTaskUnblockTime ; 0x138c
        0x00001430:    f002fb84    ....    BL       vPortExitCritical ; 0x3b3c
        0x00001434:    4861        aH      LDR      r0,[pc,#388] ; [0x15bc] = 0x20000030
        0x00001436:    6800        .h      LDR      r0,[r0,#0]
        0x00001438:    2800        .(      CMP      r0,#0
        0x0000143a:    d011        ..      BEQ      0x1460 ; vTaskDelete + 148
        0x0000143c:    485e        ^H      LDR      r0,[pc,#376] ; [0x15b8] = 0x20000014
        0x0000143e:    6800        .h      LDR      r0,[r0,#0]
        0x00001440:    4284        .B      CMP      r4,r0
        0x00001442:    d10d        ..      BNE      0x1460 ; vTaskDelete + 148
        0x00001444:    4862        bH      LDR      r0,[pc,#392] ; [0x15d0] = 0x2000004c
        0x00001446:    6800        .h      LDR      r0,[r0,#0]
        0x00001448:    2800        .(      CMP      r0,#0
        0x0000144a:    d101        ..      BNE      0x1450 ; vTaskDelete + 132
        0x0000144c:    2001        .       MOVS     r0,#1
        0x0000144e:    e000        ..      B        0x1452 ; vTaskDelete + 134
        0x00001450:    2000        .       MOVS     r0,#0
        0x00001452:    2800        .(      CMP      r0,#0
        0x00001454:    d102        ..      BNE      0x145c ; vTaskDelete + 144
        0x00001456:    b672        r.      CPSID    i
        0x00001458:    bf00        ..      NOP      
        0x0000145a:    e7fe        ..      B        0x145a ; vTaskDelete + 142
        0x0000145c:    f002fb5a    ..Z.    BL       vPortYield ; 0x3b14
        0x00001460:    bd70        p.      POP      {r4-r6,pc}
    xTaskIncrementTick
        0x00001462:    b5f8        ..      PUSH     {r3-r7,lr}
        0x00001464:    2000        .       MOVS     r0,#0
        0x00001466:    9000        ..      STR      r0,[sp,#0]
        0x00001468:    4859        YH      LDR      r0,[pc,#356] ; [0x15d0] = 0x2000004c
        0x0000146a:    6800        .h      LDR      r0,[r0,#0]
        0x0000146c:    2800        .(      CMP      r0,#0
        0x0000146e:    d178        x.      BNE      0x1562 ; xTaskIncrementTick + 256
        0x00001470:    4858        XH      LDR      r0,[pc,#352] ; [0x15d4] = 0x20000028
        0x00001472:    6800        .h      LDR      r0,[r0,#0]
        0x00001474:    1c45        E.      ADDS     r5,r0,#1
        0x00001476:    4857        WH      LDR      r0,[pc,#348] ; [0x15d4] = 0x20000028
        0x00001478:    6005        .`      STR      r5,[r0,#0]
        0x0000147a:    2d00        .-      CMP      r5,#0
        0x0000147c:    d11c        ..      BNE      0x14b8 ; xTaskIncrementTick + 86
        0x0000147e:    484b        KH      LDR      r0,[pc,#300] ; [0x15ac] = 0x20000018
        0x00001480:    6800        .h      LDR      r0,[r0,#0]
        0x00001482:    6800        .h      LDR      r0,[r0,#0]
        0x00001484:    2800        .(      CMP      r0,#0
        0x00001486:    d101        ..      BNE      0x148c ; xTaskIncrementTick + 42
        0x00001488:    2001        .       MOVS     r0,#1
        0x0000148a:    e000        ..      B        0x148e ; xTaskIncrementTick + 44
        0x0000148c:    2000        .       MOVS     r0,#0
        0x0000148e:    2800        .(      CMP      r0,#0
        0x00001490:    d102        ..      BNE      0x1498 ; xTaskIncrementTick + 54
        0x00001492:    b672        r.      CPSID    i
        0x00001494:    bf00        ..      NOP      
        0x00001496:    e7fe        ..      B        0x1496 ; xTaskIncrementTick + 52
        0x00001498:    4844        DH      LDR      r0,[pc,#272] ; [0x15ac] = 0x20000018
        0x0000149a:    6807        .h      LDR      r7,[r0,#0]
        0x0000149c:    4844        DH      LDR      r0,[pc,#272] ; [0x15b0] = 0x2000001c
        0x0000149e:    6800        .h      LDR      r0,[r0,#0]
        0x000014a0:    4942        BI      LDR      r1,[pc,#264] ; [0x15ac] = 0x20000018
        0x000014a2:    6008        .`      STR      r0,[r1,#0]
        0x000014a4:    4842        BH      LDR      r0,[pc,#264] ; [0x15b0] = 0x2000001c
        0x000014a6:    6007        .`      STR      r7,[r0,#0]
        0x000014a8:    484b        KH      LDR      r0,[pc,#300] ; [0x15d8] = 0x2000003c
        0x000014aa:    6800        .h      LDR      r0,[r0,#0]
        0x000014ac:    1c40        @.      ADDS     r0,r0,#1
        0x000014ae:    494a        JI      LDR      r1,[pc,#296] ; [0x15d8] = 0x2000003c
        0x000014b0:    6008        .`      STR      r0,[r1,#0]
        0x000014b2:    f7ffff6b    ..k.    BL       prvResetNextTaskUnblockTime ; 0x138c
        0x000014b6:    bf00        ..      NOP      
        0x000014b8:    4843        CH      LDR      r0,[pc,#268] ; [0x15c8] = 0x20000044
        0x000014ba:    6800        .h      LDR      r0,[r0,#0]
        0x000014bc:    4285        .B      CMP      r5,r0
        0x000014be:    d33d        =.      BCC      0x153c ; xTaskIncrementTick + 218
        0x000014c0:    bf00        ..      NOP      
        0x000014c2:    483a        :H      LDR      r0,[pc,#232] ; [0x15ac] = 0x20000018
        0x000014c4:    6800        .h      LDR      r0,[r0,#0]
        0x000014c6:    6800        .h      LDR      r0,[r0,#0]
        0x000014c8:    2800        .(      CMP      r0,#0
        0x000014ca:    d101        ..      BNE      0x14d0 ; xTaskIncrementTick + 110
        0x000014cc:    2001        .       MOVS     r0,#1
        0x000014ce:    e000        ..      B        0x14d2 ; xTaskIncrementTick + 112
        0x000014d0:    2000        .       MOVS     r0,#0
        0x000014d2:    2800        .(      CMP      r0,#0
        0x000014d4:    d004        ..      BEQ      0x14e0 ; xTaskIncrementTick + 126
        0x000014d6:    2000        .       MOVS     r0,#0
        0x000014d8:    43c0        .C      MVNS     r0,r0
        0x000014da:    493b        ;I      LDR      r1,[pc,#236] ; [0x15c8] = 0x20000044
        0x000014dc:    6008        .`      STR      r0,[r1,#0]
        0x000014de:    e02c        ,.      B        0x153a ; xTaskIncrementTick + 216
        0x000014e0:    4832        2H      LDR      r0,[pc,#200] ; [0x15ac] = 0x20000018
        0x000014e2:    6800        .h      LDR      r0,[r0,#0]
        0x000014e4:    68c0        .h      LDR      r0,[r0,#0xc]
        0x000014e6:    68c4        .h      LDR      r4,[r0,#0xc]
        0x000014e8:    6866        fh      LDR      r6,[r4,#4]
        0x000014ea:    42b5        .B      CMP      r5,r6
        0x000014ec:    d202        ..      BCS      0x14f4 ; xTaskIncrementTick + 146
        0x000014ee:    4836        6H      LDR      r0,[pc,#216] ; [0x15c8] = 0x20000044
        0x000014f0:    6006        .`      STR      r6,[r0,#0]
        0x000014f2:    e022        ".      B        0x153a ; xTaskIncrementTick + 216
        0x000014f4:    1d20         .      ADDS     r0,r4,#4
        0x000014f6:    f7fffe3e    ..>.    BL       uxListRemove ; 0x1176
        0x000014fa:    6aa0        .j      LDR      r0,[r4,#0x28]
        0x000014fc:    2800        .(      CMP      r0,#0
        0x000014fe:    d003        ..      BEQ      0x1508 ; xTaskIncrementTick + 166
        0x00001500:    4620         F      MOV      r0,r4
        0x00001502:    3018        .0      ADDS     r0,r0,#0x18
        0x00001504:    f7fffe37    ..7.    BL       uxListRemove ; 0x1176
        0x00001508:    492e        .I      LDR      r1,[pc,#184] ; [0x15c4] = 0x2000002c
        0x0000150a:    6ae0        .j      LDR      r0,[r4,#0x2c]
        0x0000150c:    6809        .h      LDR      r1,[r1,#0]
        0x0000150e:    4288        .B      CMP      r0,r1
        0x00001510:    d902        ..      BLS      0x1518 ; xTaskIncrementTick + 182
        0x00001512:    492c        ,I      LDR      r1,[pc,#176] ; [0x15c4] = 0x2000002c
        0x00001514:    6ae0        .j      LDR      r0,[r4,#0x2c]
        0x00001516:    6008        .`      STR      r0,[r1,#0]
        0x00001518:    2214        ."      MOVS     r2,#0x14
        0x0000151a:    6ae1        .j      LDR      r1,[r4,#0x2c]
        0x0000151c:    4351        QC      MULS     r1,r2,r1
        0x0000151e:    4a1d        .J      LDR      r2,[pc,#116] ; [0x1594] = 0x20000080
        0x00001520:    1888        ..      ADDS     r0,r1,r2
        0x00001522:    1d21        !.      ADDS     r1,r4,#4
        0x00001524:    f7fffe00    ....    BL       vListInsertEnd ; 0x1128
        0x00001528:    4923        #I      LDR      r1,[pc,#140] ; [0x15b8] = 0x20000014
        0x0000152a:    6ae0        .j      LDR      r0,[r4,#0x2c]
        0x0000152c:    6809        .h      LDR      r1,[r1,#0]
        0x0000152e:    6ac9        .j      LDR      r1,[r1,#0x2c]
        0x00001530:    4288        .B      CMP      r0,r1
        0x00001532:    d3c6        ..      BCC      0x14c2 ; xTaskIncrementTick + 96
        0x00001534:    2001        .       MOVS     r0,#1
        0x00001536:    9000        ..      STR      r0,[sp,#0]
        0x00001538:    e7c3        ..      B        0x14c2 ; xTaskIncrementTick + 96
        0x0000153a:    bf00        ..      NOP      
        0x0000153c:    481e        .H      LDR      r0,[pc,#120] ; [0x15b8] = 0x20000014
        0x0000153e:    6800        .h      LDR      r0,[r0,#0]
        0x00001540:    6ac0        .j      LDR      r0,[r0,#0x2c]
        0x00001542:    2114        .!      MOVS     r1,#0x14
        0x00001544:    4348        HC      MULS     r0,r1,r0
        0x00001546:    4913        .I      LDR      r1,[pc,#76] ; [0x1594] = 0x20000080
        0x00001548:    5808        .X      LDR      r0,[r1,r0]
        0x0000154a:    2801        .(      CMP      r0,#1
        0x0000154c:    d901        ..      BLS      0x1552 ; xTaskIncrementTick + 240
        0x0000154e:    2001        .       MOVS     r0,#1
        0x00001550:    9000        ..      STR      r0,[sp,#0]
        0x00001552:    4822        "H      LDR      r0,[pc,#136] ; [0x15dc] = 0x20000034
        0x00001554:    6800        .h      LDR      r0,[r0,#0]
        0x00001556:    2800        .(      CMP      r0,#0
        0x00001558:    d101        ..      BNE      0x155e ; xTaskIncrementTick + 252
        0x0000155a:    f7feff0f    ....    BL       vApplicationTickHook ; 0x37c
        0x0000155e:    e007        ..      B        0x1570 ; xTaskIncrementTick + 270
        0x00001560:    e7ff        ..      B        0x1562 ; xTaskIncrementTick + 256
        0x00001562:    481e        .H      LDR      r0,[pc,#120] ; [0x15dc] = 0x20000034
        0x00001564:    6800        .h      LDR      r0,[r0,#0]
        0x00001566:    1c40        @.      ADDS     r0,r0,#1
        0x00001568:    491c        .I      LDR      r1,[pc,#112] ; [0x15dc] = 0x20000034
        0x0000156a:    6008        .`      STR      r0,[r1,#0]
        0x0000156c:    f7feff06    ....    BL       vApplicationTickHook ; 0x37c
        0x00001570:    481b        .H      LDR      r0,[pc,#108] ; [0x15e0] = 0x20000038
        0x00001572:    6800        .h      LDR      r0,[r0,#0]
        0x00001574:    2800        .(      CMP      r0,#0
        0x00001576:    d001        ..      BEQ      0x157c ; xTaskIncrementTick + 282
        0x00001578:    2001        .       MOVS     r0,#1
        0x0000157a:    9000        ..      STR      r0,[sp,#0]
        0x0000157c:    9800        ..      LDR      r0,[sp,#0]
        0x0000157e:    bdf8        ..      POP      {r3-r7,pc}
    xTaskResumeAll
        0x00001580:    b570        p.      PUSH     {r4-r6,lr}
        0x00001582:    2400        .$      MOVS     r4,#0
        0x00001584:    2600        .&      MOVS     r6,#0
        0x00001586:    4812        .H      LDR      r0,[pc,#72] ; [0x15d0] = 0x2000004c
        0x00001588:    6800        .h      LDR      r0,[r0,#0]
        0x0000158a:    2800        .(      CMP      r0,#0
        0x0000158c:    d12a        *.      BNE      0x15e4 ; xTaskResumeAll + 100
        0x0000158e:    b672        r.      CPSID    i
        0x00001590:    bf00        ..      NOP      
        0x00001592:    e7fe        ..      B        0x1592 ; xTaskResumeAll + 18
    $d
        0x00001594:    20000080    ...     DCD    536871040
        0x00001598:    200000e4    ...     DCD    536871140
        0x0000159c:    200000f8    ...     DCD    536871160
        0x000015a0:    2000010c    ...     DCD    536871180
        0x000015a4:    20000120     ..     DCD    536871200
        0x000015a8:    20000134    4..     DCD    536871220
        0x000015ac:    20000018    ...     DCD    536870936
        0x000015b0:    2000001c    ...     DCD    536870940
        0x000015b4:    20000024    $..     DCD    536870948
        0x000015b8:    20000014    ...     DCD    536870932
        0x000015bc:    20000030    0..     DCD    536870960
        0x000015c0:    20000040    @..     DCD    536870976
        0x000015c4:    2000002c    ,..     DCD    536870956
        0x000015c8:    20000044    D..     DCD    536870980
        0x000015cc:    20000020     ..     DCD    536870944
        0x000015d0:    2000004c    L..     DCD    536870988
        0x000015d4:    20000028    (..     DCD    536870952
        0x000015d8:    2000003c    <..     DCD    536870972
        0x000015dc:    20000034    4..     DCD    536870964
        0x000015e0:    20000038    8..     DCD    536870968
    $t
        0x000015e4:    f002fa9f    ....    BL       vPortEnterCritical ; 0x3b26
        0x000015e8:    48fc        .H      LDR      r0,[pc,#1008] ; [0x19dc] = 0x2000004c
        0x000015ea:    6800        .h      LDR      r0,[r0,#0]
        0x000015ec:    1e40        @.      SUBS     r0,r0,#1
        0x000015ee:    49fb        .I      LDR      r1,[pc,#1004] ; [0x19dc] = 0x2000004c
        0x000015f0:    6008        .`      STR      r0,[r1,#0]
        0x000015f2:    4608        .F      MOV      r0,r1
        0x000015f4:    6800        .h      LDR      r0,[r0,#0]
        0x000015f6:    2800        .(      CMP      r0,#0
        0x000015f8:    d14d        M.      BNE      0x1696 ; xTaskResumeAll + 278
        0x000015fa:    48f9        .H      LDR      r0,[pc,#996] ; [0x19e0] = 0x20000024
        0x000015fc:    6800        .h      LDR      r0,[r0,#0]
        0x000015fe:    2800        .(      CMP      r0,#0
        0x00001600:    d049        I.      BEQ      0x1696 ; xTaskResumeAll + 278
        0x00001602:    e022        ".      B        0x164a ; xTaskResumeAll + 202
        0x00001604:    48f7        .H      LDR      r0,[pc,#988] ; [0x19e4] = 0x2000010c
        0x00001606:    68c0        .h      LDR      r0,[r0,#0xc]
        0x00001608:    68c4        .h      LDR      r4,[r0,#0xc]
        0x0000160a:    4620         F      MOV      r0,r4
        0x0000160c:    3018        .0      ADDS     r0,r0,#0x18
        0x0000160e:    f7fffdb2    ....    BL       uxListRemove ; 0x1176
        0x00001612:    1d20         .      ADDS     r0,r4,#4
        0x00001614:    f7fffdaf    ....    BL       uxListRemove ; 0x1176
        0x00001618:    49f3        .I      LDR      r1,[pc,#972] ; [0x19e8] = 0x2000002c
        0x0000161a:    6ae0        .j      LDR      r0,[r4,#0x2c]
        0x0000161c:    6809        .h      LDR      r1,[r1,#0]
        0x0000161e:    4288        .B      CMP      r0,r1
        0x00001620:    d902        ..      BLS      0x1628 ; xTaskResumeAll + 168
        0x00001622:    49f1        .I      LDR      r1,[pc,#964] ; [0x19e8] = 0x2000002c
        0x00001624:    6ae0        .j      LDR      r0,[r4,#0x2c]
        0x00001626:    6008        .`      STR      r0,[r1,#0]
        0x00001628:    2214        ."      MOVS     r2,#0x14
        0x0000162a:    6ae1        .j      LDR      r1,[r4,#0x2c]
        0x0000162c:    4351        QC      MULS     r1,r2,r1
        0x0000162e:    4aef        .J      LDR      r2,[pc,#956] ; [0x19ec] = 0x20000080
        0x00001630:    1888        ..      ADDS     r0,r1,r2
        0x00001632:    1d21        !.      ADDS     r1,r4,#4
        0x00001634:    f7fffd78    ..x.    BL       vListInsertEnd ; 0x1128
        0x00001638:    49ed        .I      LDR      r1,[pc,#948] ; [0x19f0] = 0x20000014
        0x0000163a:    6ae0        .j      LDR      r0,[r4,#0x2c]
        0x0000163c:    6809        .h      LDR      r1,[r1,#0]
        0x0000163e:    6ac9        .j      LDR      r1,[r1,#0x2c]
        0x00001640:    4288        .B      CMP      r0,r1
        0x00001642:    d302        ..      BCC      0x164a ; xTaskResumeAll + 202
        0x00001644:    2001        .       MOVS     r0,#1
        0x00001646:    49eb        .I      LDR      r1,[pc,#940] ; [0x19f4] = 0x20000038
        0x00001648:    6008        .`      STR      r0,[r1,#0]
        0x0000164a:    48e6        .H      LDR      r0,[pc,#920] ; [0x19e4] = 0x2000010c
        0x0000164c:    6800        .h      LDR      r0,[r0,#0]
        0x0000164e:    2800        .(      CMP      r0,#0
        0x00001650:    d101        ..      BNE      0x1656 ; xTaskResumeAll + 214
        0x00001652:    2001        .       MOVS     r0,#1
        0x00001654:    e000        ..      B        0x1658 ; xTaskResumeAll + 216
        0x00001656:    2000        .       MOVS     r0,#0
        0x00001658:    2800        .(      CMP      r0,#0
        0x0000165a:    d0d3        ..      BEQ      0x1604 ; xTaskResumeAll + 132
        0x0000165c:    2c00        .,      CMP      r4,#0
        0x0000165e:    d001        ..      BEQ      0x1664 ; xTaskResumeAll + 228
        0x00001660:    f7fffe94    ....    BL       prvResetNextTaskUnblockTime ; 0x138c
        0x00001664:    48e4        .H      LDR      r0,[pc,#912] ; [0x19f8] = 0x20000034
        0x00001666:    6805        .h      LDR      r5,[r0,#0]
        0x00001668:    2d00        .-      CMP      r5,#0
        0x0000166a:    d00d        ..      BEQ      0x1688 ; xTaskResumeAll + 264
        0x0000166c:    bf00        ..      NOP      
        0x0000166e:    f7fffef8    ....    BL       xTaskIncrementTick ; 0x1462
        0x00001672:    2800        .(      CMP      r0,#0
        0x00001674:    d002        ..      BEQ      0x167c ; xTaskResumeAll + 252
        0x00001676:    2001        .       MOVS     r0,#1
        0x00001678:    49de        .I      LDR      r1,[pc,#888] ; [0x19f4] = 0x20000038
        0x0000167a:    6008        .`      STR      r0,[r1,#0]
        0x0000167c:    1e6d        m.      SUBS     r5,r5,#1
        0x0000167e:    2d00        .-      CMP      r5,#0
        0x00001680:    d1f5        ..      BNE      0x166e ; xTaskResumeAll + 238
        0x00001682:    2000        .       MOVS     r0,#0
        0x00001684:    49dc        .I      LDR      r1,[pc,#880] ; [0x19f8] = 0x20000034
        0x00001686:    6008        .`      STR      r0,[r1,#0]
        0x00001688:    48da        .H      LDR      r0,[pc,#872] ; [0x19f4] = 0x20000038
        0x0000168a:    6800        .h      LDR      r0,[r0,#0]
        0x0000168c:    2800        .(      CMP      r0,#0
        0x0000168e:    d002        ..      BEQ      0x1696 ; xTaskResumeAll + 278
        0x00001690:    2601        .&      MOVS     r6,#1
        0x00001692:    f002fa3f    ..?.    BL       vPortYield ; 0x3b14
        0x00001696:    f002fa51    ..Q.    BL       vPortExitCritical ; 0x3b3c
        0x0000169a:    4630        0F      MOV      r0,r6
        0x0000169c:    bd70        p.      POP      {r4-r6,pc}
    prvAddCurrentTaskToDelayedList
        0x0000169e:    b5f8        ..      PUSH     {r3-r7,lr}
        0x000016a0:    4605        .F      MOV      r5,r0
        0x000016a2:    460e        .F      MOV      r6,r1
        0x000016a4:    48d5        .H      LDR      r0,[pc,#852] ; [0x19fc] = 0x20000028
        0x000016a6:    6807        .h      LDR      r7,[r0,#0]
        0x000016a8:    48d1        .H      LDR      r0,[pc,#836] ; [0x19f0] = 0x20000014
        0x000016aa:    6800        .h      LDR      r0,[r0,#0]
        0x000016ac:    1d00        ..      ADDS     r0,r0,#4
        0x000016ae:    f7fffd62    ..b.    BL       uxListRemove ; 0x1176
        0x000016b2:    1c68        h.      ADDS     r0,r5,#1
        0x000016b4:    2800        .(      CMP      r0,#0
        0x000016b6:    d108        ..      BNE      0x16ca ; prvAddCurrentTaskToDelayedList + 44
        0x000016b8:    2e00        ..      CMP      r6,#0
        0x000016ba:    d006        ..      BEQ      0x16ca ; prvAddCurrentTaskToDelayedList + 44
        0x000016bc:    48cc        .H      LDR      r0,[pc,#816] ; [0x19f0] = 0x20000014
        0x000016be:    6801        .h      LDR      r1,[r0,#0]
        0x000016c0:    1d09        ..      ADDS     r1,r1,#4
        0x000016c2:    48cf        .H      LDR      r0,[pc,#828] ; [0x1a00] = 0x20000134
        0x000016c4:    f7fffd30    ..0.    BL       vListInsertEnd ; 0x1128
        0x000016c8:    e01a        ..      B        0x1700 ; prvAddCurrentTaskToDelayedList + 98
        0x000016ca:    197c        |.      ADDS     r4,r7,r5
        0x000016cc:    48c8        .H      LDR      r0,[pc,#800] ; [0x19f0] = 0x20000014
        0x000016ce:    6800        .h      LDR      r0,[r0,#0]
        0x000016d0:    6044        D`      STR      r4,[r0,#4]
        0x000016d2:    42bc        .B      CMP      r4,r7
        0x000016d4:    d207        ..      BCS      0x16e6 ; prvAddCurrentTaskToDelayedList + 72
        0x000016d6:    48c6        .H      LDR      r0,[pc,#792] ; [0x19f0] = 0x20000014
        0x000016d8:    6801        .h      LDR      r1,[r0,#0]
        0x000016da:    1d09        ..      ADDS     r1,r1,#4
        0x000016dc:    48c9        .H      LDR      r0,[pc,#804] ; [0x1a04] = 0x2000001c
        0x000016de:    6800        .h      LDR      r0,[r0,#0]
        0x000016e0:    f7fffd2e    ....    BL       vListInsert ; 0x1140
        0x000016e4:    e00c        ..      B        0x1700 ; prvAddCurrentTaskToDelayedList + 98
        0x000016e6:    48c2        .H      LDR      r0,[pc,#776] ; [0x19f0] = 0x20000014
        0x000016e8:    6801        .h      LDR      r1,[r0,#0]
        0x000016ea:    1d09        ..      ADDS     r1,r1,#4
        0x000016ec:    48c6        .H      LDR      r0,[pc,#792] ; [0x1a08] = 0x20000018
        0x000016ee:    6800        .h      LDR      r0,[r0,#0]
        0x000016f0:    f7fffd26    ..&.    BL       vListInsert ; 0x1140
        0x000016f4:    48c5        .H      LDR      r0,[pc,#788] ; [0x1a0c] = 0x20000044
        0x000016f6:    6800        .h      LDR      r0,[r0,#0]
        0x000016f8:    4284        .B      CMP      r4,r0
        0x000016fa:    d201        ..      BCS      0x1700 ; prvAddCurrentTaskToDelayedList + 98
        0x000016fc:    48c3        .H      LDR      r0,[pc,#780] ; [0x1a0c] = 0x20000044
        0x000016fe:    6004        .`      STR      r4,[r0,#0]
        0x00001700:    bdf8        ..      POP      {r3-r7,pc}
    vTaskSuspendAll
        0x00001702:    48b6        .H      LDR      r0,[pc,#728] ; [0x19dc] = 0x2000004c
        0x00001704:    6800        .h      LDR      r0,[r0,#0]
        0x00001706:    1c40        @.      ADDS     r0,r0,#1
        0x00001708:    49b4        .I      LDR      r1,[pc,#720] ; [0x19dc] = 0x2000004c
        0x0000170a:    6008        .`      STR      r0,[r1,#0]
        0x0000170c:    4770        pG      BX       lr
    vTaskDelayUntil
        0x0000170e:    b5fe        ..      PUSH     {r1-r7,lr}
        0x00001710:    4604        .F      MOV      r4,r0
        0x00001712:    460f        .F      MOV      r7,r1
        0x00001714:    2000        .       MOVS     r0,#0
        0x00001716:    9000        ..      STR      r0,[sp,#0]
        0x00001718:    2c00        .,      CMP      r4,#0
        0x0000171a:    d102        ..      BNE      0x1722 ; vTaskDelayUntil + 20
        0x0000171c:    b672        r.      CPSID    i
        0x0000171e:    bf00        ..      NOP      
        0x00001720:    e7fe        ..      B        0x1720 ; vTaskDelayUntil + 18
        0x00001722:    2f00        ./      CMP      r7,#0
        0x00001724:    d001        ..      BEQ      0x172a ; vTaskDelayUntil + 28
        0x00001726:    2001        .       MOVS     r0,#1
        0x00001728:    e000        ..      B        0x172c ; vTaskDelayUntil + 30
        0x0000172a:    2000        .       MOVS     r0,#0
        0x0000172c:    2800        .(      CMP      r0,#0
        0x0000172e:    d102        ..      BNE      0x1736 ; vTaskDelayUntil + 40
        0x00001730:    b672        r.      CPSID    i
        0x00001732:    bf00        ..      NOP      
        0x00001734:    e7fe        ..      B        0x1734 ; vTaskDelayUntil + 38
        0x00001736:    48a9        .H      LDR      r0,[pc,#676] ; [0x19dc] = 0x2000004c
        0x00001738:    6800        .h      LDR      r0,[r0,#0]
        0x0000173a:    2800        .(      CMP      r0,#0
        0x0000173c:    d101        ..      BNE      0x1742 ; vTaskDelayUntil + 52
        0x0000173e:    2001        .       MOVS     r0,#1
        0x00001740:    e000        ..      B        0x1744 ; vTaskDelayUntil + 54
        0x00001742:    2000        .       MOVS     r0,#0
        0x00001744:    2800        .(      CMP      r0,#0
        0x00001746:    d102        ..      BNE      0x174e ; vTaskDelayUntil + 64
        0x00001748:    b672        r.      CPSID    i
        0x0000174a:    bf00        ..      NOP      
        0x0000174c:    e7fe        ..      B        0x174c ; vTaskDelayUntil + 62
        0x0000174e:    f7ffffd8    ....    BL       vTaskSuspendAll ; 0x1702
        0x00001752:    48aa        .H      LDR      r0,[pc,#680] ; [0x19fc] = 0x20000028
        0x00001754:    6806        .h      LDR      r6,[r0,#0]
        0x00001756:    6820         h      LDR      r0,[r4,#0]
        0x00001758:    19c5        ..      ADDS     r5,r0,r7
        0x0000175a:    6820         h      LDR      r0,[r4,#0]
        0x0000175c:    42b0        .B      CMP      r0,r6
        0x0000175e:    d907        ..      BLS      0x1770 ; vTaskDelayUntil + 98
        0x00001760:    6820         h      LDR      r0,[r4,#0]
        0x00001762:    42a8        .B      CMP      r0,r5
        0x00001764:    d90b        ..      BLS      0x177e ; vTaskDelayUntil + 112
        0x00001766:    42b5        .B      CMP      r5,r6
        0x00001768:    d909        ..      BLS      0x177e ; vTaskDelayUntil + 112
        0x0000176a:    2001        .       MOVS     r0,#1
        0x0000176c:    9000        ..      STR      r0,[sp,#0]
        0x0000176e:    e006        ..      B        0x177e ; vTaskDelayUntil + 112
        0x00001770:    6820         h      LDR      r0,[r4,#0]
        0x00001772:    42a8        .B      CMP      r0,r5
        0x00001774:    d801        ..      BHI      0x177a ; vTaskDelayUntil + 108
        0x00001776:    42b5        .B      CMP      r5,r6
        0x00001778:    d901        ..      BLS      0x177e ; vTaskDelayUntil + 112
        0x0000177a:    2001        .       MOVS     r0,#1
        0x0000177c:    9000        ..      STR      r0,[sp,#0]
        0x0000177e:    6025        %`      STR      r5,[r4,#0]
        0x00001780:    9800        ..      LDR      r0,[sp,#0]
        0x00001782:    2800        .(      CMP      r0,#0
        0x00001784:    d003        ..      BEQ      0x178e ; vTaskDelayUntil + 128
        0x00001786:    1ba8        ..      SUBS     r0,r5,r6
        0x00001788:    2100        .!      MOVS     r1,#0
        0x0000178a:    f7ffff88    ....    BL       prvAddCurrentTaskToDelayedList ; 0x169e
        0x0000178e:    f7fffef7    ....    BL       xTaskResumeAll ; 0x1580
        0x00001792:    9001        ..      STR      r0,[sp,#4]
        0x00001794:    9801        ..      LDR      r0,[sp,#4]
        0x00001796:    2800        .(      CMP      r0,#0
        0x00001798:    d101        ..      BNE      0x179e ; vTaskDelayUntil + 144
        0x0000179a:    f002f9bb    ....    BL       vPortYield ; 0x3b14
        0x0000179e:    bdfe        ..      POP      {r1-r7,pc}
    vTaskDelay
        0x000017a0:    b570        p.      PUSH     {r4-r6,lr}
        0x000017a2:    4604        .F      MOV      r4,r0
        0x000017a4:    2500        .%      MOVS     r5,#0
        0x000017a6:    2c00        .,      CMP      r4,#0
        0x000017a8:    d014        ..      BEQ      0x17d4 ; vTaskDelay + 52
        0x000017aa:    488c        .H      LDR      r0,[pc,#560] ; [0x19dc] = 0x2000004c
        0x000017ac:    6800        .h      LDR      r0,[r0,#0]
        0x000017ae:    2800        .(      CMP      r0,#0
        0x000017b0:    d101        ..      BNE      0x17b6 ; vTaskDelay + 22
        0x000017b2:    2001        .       MOVS     r0,#1
        0x000017b4:    e000        ..      B        0x17b8 ; vTaskDelay + 24
        0x000017b6:    2000        .       MOVS     r0,#0
        0x000017b8:    2800        .(      CMP      r0,#0
        0x000017ba:    d102        ..      BNE      0x17c2 ; vTaskDelay + 34
        0x000017bc:    b672        r.      CPSID    i
        0x000017be:    bf00        ..      NOP      
        0x000017c0:    e7fe        ..      B        0x17c0 ; vTaskDelay + 32
        0x000017c2:    f7ffff9e    ....    BL       vTaskSuspendAll ; 0x1702
        0x000017c6:    2100        .!      MOVS     r1,#0
        0x000017c8:    4620         F      MOV      r0,r4
        0x000017ca:    f7ffff68    ..h.    BL       prvAddCurrentTaskToDelayedList ; 0x169e
        0x000017ce:    f7fffed7    ....    BL       xTaskResumeAll ; 0x1580
        0x000017d2:    4605        .F      MOV      r5,r0
        0x000017d4:    2d00        .-      CMP      r5,#0
        0x000017d6:    d101        ..      BNE      0x17dc ; vTaskDelay + 60
        0x000017d8:    f002f99c    ....    BL       vPortYield ; 0x3b14
        0x000017dc:    bd70        p.      POP      {r4-r6,pc}
    eTaskGetState
        0x000017de:    b5fe        ..      PUSH     {r1-r7,lr}
        0x000017e0:    4607        .F      MOV      r7,r0
        0x000017e2:    463e        >F      MOV      r6,r7
        0x000017e4:    2e00        ..      CMP      r6,#0
        0x000017e6:    d102        ..      BNE      0x17ee ; eTaskGetState + 16
        0x000017e8:    b672        r.      CPSID    i
        0x000017ea:    bf00        ..      NOP      
        0x000017ec:    e7fe        ..      B        0x17ec ; eTaskGetState + 14
        0x000017ee:    4880        .H      LDR      r0,[pc,#512] ; [0x19f0] = 0x20000014
        0x000017f0:    6800        .h      LDR      r0,[r0,#0]
        0x000017f2:    4286        .B      CMP      r6,r0
        0x000017f4:    d101        ..      BNE      0x17fa ; eTaskGetState + 28
        0x000017f6:    2400        .$      MOVS     r4,#0
        0x000017f8:    e02a        *.      B        0x1850 ; eTaskGetState + 114
        0x000017fa:    f002f994    ....    BL       vPortEnterCritical ; 0x3b26
        0x000017fe:    6975        ui      LDR      r5,[r6,#0x14]
        0x00001800:    4881        .H      LDR      r0,[pc,#516] ; [0x1a08] = 0x20000018
        0x00001802:    6800        .h      LDR      r0,[r0,#0]
        0x00001804:    9001        ..      STR      r0,[sp,#4]
        0x00001806:    487f        .H      LDR      r0,[pc,#508] ; [0x1a04] = 0x2000001c
        0x00001808:    6800        .h      LDR      r0,[r0,#0]
        0x0000180a:    9000        ..      STR      r0,[sp,#0]
        0x0000180c:    f002f996    ....    BL       vPortExitCritical ; 0x3b3c
        0x00001810:    9801        ..      LDR      r0,[sp,#4]
        0x00001812:    4285        .B      CMP      r5,r0
        0x00001814:    d002        ..      BEQ      0x181c ; eTaskGetState + 62
        0x00001816:    9800        ..      LDR      r0,[sp,#0]
        0x00001818:    4285        .B      CMP      r5,r0
        0x0000181a:    d101        ..      BNE      0x1820 ; eTaskGetState + 66
        0x0000181c:    2402        .$      MOVS     r4,#2
        0x0000181e:    e017        ..      B        0x1850 ; eTaskGetState + 114
        0x00001820:    4877        wH      LDR      r0,[pc,#476] ; [0x1a00] = 0x20000134
        0x00001822:    4285        .B      CMP      r5,r0
        0x00001824:    d10c        ..      BNE      0x1840 ; eTaskGetState + 98
        0x00001826:    6ab0        .j      LDR      r0,[r6,#0x28]
        0x00001828:    2800        .(      CMP      r0,#0
        0x0000182a:    d107        ..      BNE      0x183c ; eTaskGetState + 94
        0x0000182c:    2054        T       MOVS     r0,#0x54
        0x0000182e:    5d80        .]      LDRB     r0,[r0,r6]
        0x00001830:    2801        .(      CMP      r0,#1
        0x00001832:    d101        ..      BNE      0x1838 ; eTaskGetState + 90
        0x00001834:    2402        .$      MOVS     r4,#2
        0x00001836:    e00b        ..      B        0x1850 ; eTaskGetState + 114
        0x00001838:    2403        .$      MOVS     r4,#3
        0x0000183a:    e009        ..      B        0x1850 ; eTaskGetState + 114
        0x0000183c:    2402        .$      MOVS     r4,#2
        0x0000183e:    e007        ..      B        0x1850 ; eTaskGetState + 114
        0x00001840:    4873        sH      LDR      r0,[pc,#460] ; [0x1a10] = 0x20000120
        0x00001842:    4285        .B      CMP      r5,r0
        0x00001844:    d001        ..      BEQ      0x184a ; eTaskGetState + 108
        0x00001846:    2d00        .-      CMP      r5,#0
        0x00001848:    d101        ..      BNE      0x184e ; eTaskGetState + 112
        0x0000184a:    2404        .$      MOVS     r4,#4
        0x0000184c:    e000        ..      B        0x1850 ; eTaskGetState + 114
        0x0000184e:    2401        .$      MOVS     r4,#1
        0x00001850:    4620         F      MOV      r0,r4
        0x00001852:    bdfe        ..      POP      {r1-r7,pc}
    uxTaskPriorityGet
        0x00001854:    b570        p.      PUSH     {r4-r6,lr}
        0x00001856:    4604        .F      MOV      r4,r0
        0x00001858:    f002f965    ..e.    BL       vPortEnterCritical ; 0x3b26
        0x0000185c:    2c00        .,      CMP      r4,#0
        0x0000185e:    d102        ..      BNE      0x1866 ; uxTaskPriorityGet + 18
        0x00001860:    4863        cH      LDR      r0,[pc,#396] ; [0x19f0] = 0x20000014
        0x00001862:    6800        .h      LDR      r0,[r0,#0]
        0x00001864:    e000        ..      B        0x1868 ; uxTaskPriorityGet + 20
        0x00001866:    4620         F      MOV      r0,r4
        0x00001868:    4606        .F      MOV      r6,r0
        0x0000186a:    6af5        .j      LDR      r5,[r6,#0x2c]
        0x0000186c:    f002f966    ..f.    BL       vPortExitCritical ; 0x3b3c
        0x00001870:    4628        (F      MOV      r0,r5
        0x00001872:    bd70        p.      POP      {r4-r6,pc}
    uxTaskPriorityGetFromISR
        0x00001874:    b5f8        ..      PUSH     {r3-r7,lr}
        0x00001876:    4604        .F      MOV      r4,r0
        0x00001878:    f7fefc4e    ..N.    BL       ulSetInterruptMaskFromISR ; 0x118
        0x0000187c:    4607        .F      MOV      r7,r0
        0x0000187e:    2c00        .,      CMP      r4,#0
        0x00001880:    d102        ..      BNE      0x1888 ; uxTaskPriorityGetFromISR + 20
        0x00001882:    485b        [H      LDR      r0,[pc,#364] ; [0x19f0] = 0x20000014
        0x00001884:    6800        .h      LDR      r0,[r0,#0]
        0x00001886:    e000        ..      B        0x188a ; uxTaskPriorityGetFromISR + 22
        0x00001888:    4620         F      MOV      r0,r4
        0x0000188a:    4606        .F      MOV      r6,r0
        0x0000188c:    6af5        .j      LDR      r5,[r6,#0x2c]
        0x0000188e:    4638        8F      MOV      r0,r7
        0x00001890:    f7fefc46    ..F.    BL       vClearInterruptMaskFromISR ; 0x120
        0x00001894:    4628        (F      MOV      r0,r5
        0x00001896:    bdf8        ..      POP      {r3-r7,pc}
    vTaskPrioritySet
        0x00001898:    b5fe        ..      PUSH     {r1-r7,lr}
        0x0000189a:    4607        .F      MOV      r7,r0
        0x0000189c:    460d        .F      MOV      r5,r1
        0x0000189e:    2000        .       MOVS     r0,#0
        0x000018a0:    9000        ..      STR      r0,[sp,#0]
        0x000018a2:    2d05        .-      CMP      r5,#5
        0x000018a4:    d201        ..      BCS      0x18aa ; vTaskPrioritySet + 18
        0x000018a6:    2001        .       MOVS     r0,#1
        0x000018a8:    e000        ..      B        0x18ac ; vTaskPrioritySet + 20
        0x000018aa:    2000        .       MOVS     r0,#0
        0x000018ac:    2800        .(      CMP      r0,#0
        0x000018ae:    d102        ..      BNE      0x18b6 ; vTaskPrioritySet + 30
        0x000018b0:    b672        r.      CPSID    i
        0x000018b2:    bf00        ..      NOP      
        0x000018b4:    e7fe        ..      B        0x18b4 ; vTaskPrioritySet + 28
        0x000018b6:    2d05        .-      CMP      r5,#5
        0x000018b8:    d300        ..      BCC      0x18bc ; vTaskPrioritySet + 36
        0x000018ba:    2504        .%      MOVS     r5,#4
        0x000018bc:    f002f933    ..3.    BL       vPortEnterCritical ; 0x3b26
        0x000018c0:    2f00        ./      CMP      r7,#0
        0x000018c2:    d102        ..      BNE      0x18ca ; vTaskPrioritySet + 50
        0x000018c4:    484a        JH      LDR      r0,[pc,#296] ; [0x19f0] = 0x20000014
        0x000018c6:    6800        .h      LDR      r0,[r0,#0]
        0x000018c8:    e000        ..      B        0x18cc ; vTaskPrioritySet + 52
        0x000018ca:    4638        8F      MOV      r0,r7
        0x000018cc:    4604        .F      MOV      r4,r0
        0x000018ce:    6ca6        .l      LDR      r6,[r4,#0x48]
        0x000018d0:    42ae        .B      CMP      r6,r5
        0x000018d2:    d049        I.      BEQ      0x1968 ; vTaskPrioritySet + 208
        0x000018d4:    42b5        .B      CMP      r5,r6
        0x000018d6:    d90b        ..      BLS      0x18f0 ; vTaskPrioritySet + 88
        0x000018d8:    4845        EH      LDR      r0,[pc,#276] ; [0x19f0] = 0x20000014
        0x000018da:    6800        .h      LDR      r0,[r0,#0]
        0x000018dc:    4284        .B      CMP      r4,r0
        0x000018de:    d00d        ..      BEQ      0x18fc ; vTaskPrioritySet + 100
        0x000018e0:    4843        CH      LDR      r0,[pc,#268] ; [0x19f0] = 0x20000014
        0x000018e2:    6800        .h      LDR      r0,[r0,#0]
        0x000018e4:    6ac0        .j      LDR      r0,[r0,#0x2c]
        0x000018e6:    42a8        .B      CMP      r0,r5
        0x000018e8:    d808        ..      BHI      0x18fc ; vTaskPrioritySet + 100
        0x000018ea:    2001        .       MOVS     r0,#1
        0x000018ec:    9000        ..      STR      r0,[sp,#0]
        0x000018ee:    e005        ..      B        0x18fc ; vTaskPrioritySet + 100
        0x000018f0:    483f        ?H      LDR      r0,[pc,#252] ; [0x19f0] = 0x20000014
        0x000018f2:    6800        .h      LDR      r0,[r0,#0]
        0x000018f4:    4284        .B      CMP      r4,r0
        0x000018f6:    d101        ..      BNE      0x18fc ; vTaskPrioritySet + 100
        0x000018f8:    2001        .       MOVS     r0,#1
        0x000018fa:    9000        ..      STR      r0,[sp,#0]
        0x000018fc:    6ae0        .j      LDR      r0,[r4,#0x2c]
        0x000018fe:    9001        ..      STR      r0,[sp,#4]
        0x00001900:    6ae1        .j      LDR      r1,[r4,#0x2c]
        0x00001902:    6ca0        .l      LDR      r0,[r4,#0x48]
        0x00001904:    4288        .B      CMP      r0,r1
        0x00001906:    d100        ..      BNE      0x190a ; vTaskPrioritySet + 114
        0x00001908:    62e5        .b      STR      r5,[r4,#0x2c]
        0x0000190a:    64a5        .d      STR      r5,[r4,#0x48]
        0x0000190c:    69a0        .i      LDR      r0,[r4,#0x18]
        0x0000190e:    0fc0        ..      LSRS     r0,r0,#31
        0x00001910:    07c0        ..      LSLS     r0,r0,#31
        0x00001912:    2800        .(      CMP      r0,#0
        0x00001914:    d102        ..      BNE      0x191c ; vTaskPrioritySet + 132
        0x00001916:    2005        .       MOVS     r0,#5
        0x00001918:    1b40        @.      SUBS     r0,r0,r5
        0x0000191a:    61a0        .a      STR      r0,[r4,#0x18]
        0x0000191c:    6961        ai      LDR      r1,[r4,#0x14]
        0x0000191e:    2214        ."      MOVS     r2,#0x14
        0x00001920:    9801        ..      LDR      r0,[sp,#4]
        0x00001922:    4350        PC      MULS     r0,r2,r0
        0x00001924:    4a31        1J      LDR      r2,[pc,#196] ; [0x19ec] = 0x20000080
        0x00001926:    1880        ..      ADDS     r0,r0,r2
        0x00001928:    4281        .B      CMP      r1,r0
        0x0000192a:    d101        ..      BNE      0x1930 ; vTaskPrioritySet + 152
        0x0000192c:    2001        .       MOVS     r0,#1
        0x0000192e:    e000        ..      B        0x1932 ; vTaskPrioritySet + 154
        0x00001930:    2000        .       MOVS     r0,#0
        0x00001932:    2800        .(      CMP      r0,#0
        0x00001934:    d012        ..      BEQ      0x195c ; vTaskPrioritySet + 196
        0x00001936:    1d20         .      ADDS     r0,r4,#4
        0x00001938:    f7fffc1d    ....    BL       uxListRemove ; 0x1176
        0x0000193c:    492a        *I      LDR      r1,[pc,#168] ; [0x19e8] = 0x2000002c
        0x0000193e:    6ae0        .j      LDR      r0,[r4,#0x2c]
        0x00001940:    6809        .h      LDR      r1,[r1,#0]
        0x00001942:    4288        .B      CMP      r0,r1
        0x00001944:    d902        ..      BLS      0x194c ; vTaskPrioritySet + 180
        0x00001946:    4928        (I      LDR      r1,[pc,#160] ; [0x19e8] = 0x2000002c
        0x00001948:    6ae0        .j      LDR      r0,[r4,#0x2c]
        0x0000194a:    6008        .`      STR      r0,[r1,#0]
        0x0000194c:    2214        ."      MOVS     r2,#0x14
        0x0000194e:    6ae1        .j      LDR      r1,[r4,#0x2c]
        0x00001950:    4351        QC      MULS     r1,r2,r1
        0x00001952:    4a26        &J      LDR      r2,[pc,#152] ; [0x19ec] = 0x20000080
        0x00001954:    1888        ..      ADDS     r0,r1,r2
        0x00001956:    1d21        !.      ADDS     r1,r4,#4
        0x00001958:    f7fffbe6    ....    BL       vListInsertEnd ; 0x1128
        0x0000195c:    9800        ..      LDR      r0,[sp,#0]
        0x0000195e:    2800        .(      CMP      r0,#0
        0x00001960:    d001        ..      BEQ      0x1966 ; vTaskPrioritySet + 206
        0x00001962:    f002f8d7    ....    BL       vPortYield ; 0x3b14
        0x00001966:    bf00        ..      NOP      
        0x00001968:    f002f8e8    ....    BL       vPortExitCritical ; 0x3b3c
        0x0000196c:    bdfe        ..      POP      {r1-r7,pc}
    vTaskSwitchContext
        0x0000196e:    481b        .H      LDR      r0,[pc,#108] ; [0x19dc] = 0x2000004c
        0x00001970:    6800        .h      LDR      r0,[r0,#0]
        0x00001972:    2800        .(      CMP      r0,#0
        0x00001974:    d003        ..      BEQ      0x197e ; vTaskSwitchContext + 16
        0x00001976:    2001        .       MOVS     r0,#1
        0x00001978:    491e        .I      LDR      r1,[pc,#120] ; [0x19f4] = 0x20000038
        0x0000197a:    6008        .`      STR      r0,[r1,#0]
        0x0000197c:    e02c        ,.      B        0x19d8 ; vTaskSwitchContext + 106
        0x0000197e:    2000        .       MOVS     r0,#0
        0x00001980:    491c        .I      LDR      r1,[pc,#112] ; [0x19f4] = 0x20000038
        0x00001982:    6008        .`      STR      r0,[r1,#0]
        0x00001984:    4818        .H      LDR      r0,[pc,#96] ; [0x19e8] = 0x2000002c
        0x00001986:    6801        .h      LDR      r1,[r0,#0]
        0x00001988:    e005        ..      B        0x1996 ; vTaskSwitchContext + 40
        0x0000198a:    2900        .)      CMP      r1,#0
        0x0000198c:    d102        ..      BNE      0x1994 ; vTaskSwitchContext + 38
        0x0000198e:    b672        r.      CPSID    i
        0x00001990:    bf00        ..      NOP      
        0x00001992:    e7fe        ..      B        0x1992 ; vTaskSwitchContext + 36
        0x00001994:    1e49        I.      SUBS     r1,r1,#1
        0x00001996:    2014        .       MOVS     r0,#0x14
        0x00001998:    4348        HC      MULS     r0,r1,r0
        0x0000199a:    4a14        .J      LDR      r2,[pc,#80] ; [0x19ec] = 0x20000080
        0x0000199c:    5810        .X      LDR      r0,[r2,r0]
        0x0000199e:    2800        .(      CMP      r0,#0
        0x000019a0:    d101        ..      BNE      0x19a6 ; vTaskSwitchContext + 56
        0x000019a2:    2001        .       MOVS     r0,#1
        0x000019a4:    e000        ..      B        0x19a8 ; vTaskSwitchContext + 58
        0x000019a6:    2000        .       MOVS     r0,#0
        0x000019a8:    2800        .(      CMP      r0,#0
        0x000019aa:    d1ee        ..      BNE      0x198a ; vTaskSwitchContext + 28
        0x000019ac:    2214        ."      MOVS     r2,#0x14
        0x000019ae:    434a        JC      MULS     r2,r1,r2
        0x000019b0:    4b0e        .K      LDR      r3,[pc,#56] ; [0x19ec] = 0x20000080
        0x000019b2:    18d0        ..      ADDS     r0,r2,r3
        0x000019b4:    6842        Bh      LDR      r2,[r0,#4]
        0x000019b6:    6852        Rh      LDR      r2,[r2,#4]
        0x000019b8:    6042        B`      STR      r2,[r0,#4]
        0x000019ba:    4602        .F      MOV      r2,r0
        0x000019bc:    3208        .2      ADDS     r2,r2,#8
        0x000019be:    6843        Ch      LDR      r3,[r0,#4]
        0x000019c0:    4293        .B      CMP      r3,r2
        0x000019c2:    d102        ..      BNE      0x19ca ; vTaskSwitchContext + 92
        0x000019c4:    6842        Bh      LDR      r2,[r0,#4]
        0x000019c6:    6852        Rh      LDR      r2,[r2,#4]
        0x000019c8:    6042        B`      STR      r2,[r0,#4]
        0x000019ca:    6842        Bh      LDR      r2,[r0,#4]
        0x000019cc:    68d2        .h      LDR      r2,[r2,#0xc]
        0x000019ce:    4b08        .K      LDR      r3,[pc,#32] ; [0x19f0] = 0x20000014
        0x000019d0:    601a        .`      STR      r2,[r3,#0]
        0x000019d2:    4805        .H      LDR      r0,[pc,#20] ; [0x19e8] = 0x2000002c
        0x000019d4:    6001        .`      STR      r1,[r0,#0]
        0x000019d6:    bf00        ..      NOP      
        0x000019d8:    4770        pG      BX       lr
    $d
        0x000019da:    0000        ..      DCW    0
        0x000019dc:    2000004c    L..     DCD    536870988
        0x000019e0:    20000024    $..     DCD    536870948
        0x000019e4:    2000010c    ...     DCD    536871180
        0x000019e8:    2000002c    ,..     DCD    536870956
        0x000019ec:    20000080    ...     DCD    536871040
        0x000019f0:    20000014    ...     DCD    536870932
        0x000019f4:    20000038    8..     DCD    536870968
        0x000019f8:    20000034    4..     DCD    536870964
        0x000019fc:    20000028    (..     DCD    536870952
        0x00001a00:    20000134    4..     DCD    536871220
        0x00001a04:    2000001c    ...     DCD    536870940
        0x00001a08:    20000018    ...     DCD    536870936
        0x00001a0c:    20000044    D..     DCD    536870980
        0x00001a10:    20000120     ..     DCD    536871200
    $t
    vTaskSuspend
        0x00001a14:    b570        p.      PUSH     {r4-r6,lr}
        0x00001a16:    4605        .F      MOV      r5,r0
        0x00001a18:    f002f885    ....    BL       vPortEnterCritical ; 0x3b26
        0x00001a1c:    2d00        .-      CMP      r5,#0
        0x00001a1e:    d102        ..      BNE      0x1a26 ; vTaskSuspend + 18
        0x00001a20:    48fe        .H      LDR      r0,[pc,#1016] ; [0x1e1c] = 0x20000014
        0x00001a22:    6800        .h      LDR      r0,[r0,#0]
        0x00001a24:    e000        ..      B        0x1a28 ; vTaskSuspend + 20
        0x00001a26:    4628        (F      MOV      r0,r5
        0x00001a28:    4604        .F      MOV      r4,r0
        0x00001a2a:    1d20         .      ADDS     r0,r4,#4
        0x00001a2c:    f7fffba3    ....    BL       uxListRemove ; 0x1176
        0x00001a30:    6aa0        .j      LDR      r0,[r4,#0x28]
        0x00001a32:    2800        .(      CMP      r0,#0
        0x00001a34:    d003        ..      BEQ      0x1a3e ; vTaskSuspend + 42
        0x00001a36:    4620         F      MOV      r0,r4
        0x00001a38:    3018        .0      ADDS     r0,r0,#0x18
        0x00001a3a:    f7fffb9c    ....    BL       uxListRemove ; 0x1176
        0x00001a3e:    1d21        !.      ADDS     r1,r4,#4
        0x00001a40:    48f7        .H      LDR      r0,[pc,#988] ; [0x1e20] = 0x20000134
        0x00001a42:    f7fffb71    ..q.    BL       vListInsertEnd ; 0x1128
        0x00001a46:    2054        T       MOVS     r0,#0x54
        0x00001a48:    5d00        .]      LDRB     r0,[r0,r4]
        0x00001a4a:    2801        .(      CMP      r0,#1
        0x00001a4c:    d102        ..      BNE      0x1a54 ; vTaskSuspend + 64
        0x00001a4e:    2100        .!      MOVS     r1,#0
        0x00001a50:    2054        T       MOVS     r0,#0x54
        0x00001a52:    5501        .U      STRB     r1,[r0,r4]
        0x00001a54:    f002f872    ..r.    BL       vPortExitCritical ; 0x3b3c
        0x00001a58:    48f2        .H      LDR      r0,[pc,#968] ; [0x1e24] = 0x20000030
        0x00001a5a:    6800        .h      LDR      r0,[r0,#0]
        0x00001a5c:    2800        .(      CMP      r0,#0
        0x00001a5e:    d005        ..      BEQ      0x1a6c ; vTaskSuspend + 88
        0x00001a60:    f002f861    ..a.    BL       vPortEnterCritical ; 0x3b26
        0x00001a64:    f7fffc92    ....    BL       prvResetNextTaskUnblockTime ; 0x138c
        0x00001a68:    f002f868    ..h.    BL       vPortExitCritical ; 0x3b3c
        0x00001a6c:    48eb        .H      LDR      r0,[pc,#940] ; [0x1e1c] = 0x20000014
        0x00001a6e:    6800        .h      LDR      r0,[r0,#0]
        0x00001a70:    4284        .B      CMP      r4,r0
        0x00001a72:    d11e        ..      BNE      0x1ab2 ; vTaskSuspend + 158
        0x00001a74:    48eb        .H      LDR      r0,[pc,#940] ; [0x1e24] = 0x20000030
        0x00001a76:    6800        .h      LDR      r0,[r0,#0]
        0x00001a78:    2800        .(      CMP      r0,#0
        0x00001a7a:    d00e        ..      BEQ      0x1a9a ; vTaskSuspend + 134
        0x00001a7c:    48ea        .H      LDR      r0,[pc,#936] ; [0x1e28] = 0x2000004c
        0x00001a7e:    6800        .h      LDR      r0,[r0,#0]
        0x00001a80:    2800        .(      CMP      r0,#0
        0x00001a82:    d101        ..      BNE      0x1a88 ; vTaskSuspend + 116
        0x00001a84:    2001        .       MOVS     r0,#1
        0x00001a86:    e000        ..      B        0x1a8a ; vTaskSuspend + 118
        0x00001a88:    2000        .       MOVS     r0,#0
        0x00001a8a:    2800        .(      CMP      r0,#0
        0x00001a8c:    d102        ..      BNE      0x1a94 ; vTaskSuspend + 128
        0x00001a8e:    b672        r.      CPSID    i
        0x00001a90:    bf00        ..      NOP      
        0x00001a92:    e7fe        ..      B        0x1a92 ; vTaskSuspend + 126
        0x00001a94:    f002f83e    ..>.    BL       vPortYield ; 0x3b14
        0x00001a98:    e00b        ..      B        0x1ab2 ; vTaskSuspend + 158
        0x00001a9a:    48e1        .H      LDR      r0,[pc,#900] ; [0x1e20] = 0x20000134
        0x00001a9c:    6800        .h      LDR      r0,[r0,#0]
        0x00001a9e:    49e3        .I      LDR      r1,[pc,#908] ; [0x1e2c] = 0x20000024
        0x00001aa0:    6809        .h      LDR      r1,[r1,#0]
        0x00001aa2:    4288        .B      CMP      r0,r1
        0x00001aa4:    d103        ..      BNE      0x1aae ; vTaskSuspend + 154
        0x00001aa6:    2000        .       MOVS     r0,#0
        0x00001aa8:    49dc        .I      LDR      r1,[pc,#880] ; [0x1e1c] = 0x20000014
        0x00001aaa:    6008        .`      STR      r0,[r1,#0]
        0x00001aac:    e001        ..      B        0x1ab2 ; vTaskSuspend + 158
        0x00001aae:    f7ffff5e    ..^.    BL       vTaskSwitchContext ; 0x196e
        0x00001ab2:    bd70        p.      POP      {r4-r6,pc}
    prvTaskIsTaskSuspended
        0x00001ab4:    b510        ..      PUSH     {r4,lr}
        0x00001ab6:    4602        .F      MOV      r2,r0
        0x00001ab8:    2000        .       MOVS     r0,#0
        0x00001aba:    4611        .F      MOV      r1,r2
        0x00001abc:    2a00        .*      CMP      r2,#0
        0x00001abe:    d102        ..      BNE      0x1ac6 ; prvTaskIsTaskSuspended + 18
        0x00001ac0:    b672        r.      CPSID    i
        0x00001ac2:    bf00        ..      NOP      
        0x00001ac4:    e7fe        ..      B        0x1ac4 ; prvTaskIsTaskSuspended + 16
        0x00001ac6:    4cd6        .L      LDR      r4,[pc,#856] ; [0x1e20] = 0x20000134
        0x00001ac8:    694b        Ki      LDR      r3,[r1,#0x14]
        0x00001aca:    42a3        .B      CMP      r3,r4
        0x00001acc:    d101        ..      BNE      0x1ad2 ; prvTaskIsTaskSuspended + 30
        0x00001ace:    2301        .#      MOVS     r3,#1
        0x00001ad0:    e000        ..      B        0x1ad4 ; prvTaskIsTaskSuspended + 32
        0x00001ad2:    2300        .#      MOVS     r3,#0
        0x00001ad4:    2b00        .+      CMP      r3,#0
        0x00001ad6:    d011        ..      BEQ      0x1afc ; prvTaskIsTaskSuspended + 72
        0x00001ad8:    4cd5        .L      LDR      r4,[pc,#852] ; [0x1e30] = 0x2000010c
        0x00001ada:    6a8b        .j      LDR      r3,[r1,#0x28]
        0x00001adc:    42a3        .B      CMP      r3,r4
        0x00001ade:    d101        ..      BNE      0x1ae4 ; prvTaskIsTaskSuspended + 48
        0x00001ae0:    2301        .#      MOVS     r3,#1
        0x00001ae2:    e000        ..      B        0x1ae6 ; prvTaskIsTaskSuspended + 50
        0x00001ae4:    2300        .#      MOVS     r3,#0
        0x00001ae6:    2b00        .+      CMP      r3,#0
        0x00001ae8:    d108        ..      BNE      0x1afc ; prvTaskIsTaskSuspended + 72
        0x00001aea:    6a8b        .j      LDR      r3,[r1,#0x28]
        0x00001aec:    2b00        .+      CMP      r3,#0
        0x00001aee:    d101        ..      BNE      0x1af4 ; prvTaskIsTaskSuspended + 64
        0x00001af0:    2301        .#      MOVS     r3,#1
        0x00001af2:    e000        ..      B        0x1af6 ; prvTaskIsTaskSuspended + 66
        0x00001af4:    2300        .#      MOVS     r3,#0
        0x00001af6:    2b00        .+      CMP      r3,#0
        0x00001af8:    d000        ..      BEQ      0x1afc ; prvTaskIsTaskSuspended + 72
        0x00001afa:    2001        .       MOVS     r0,#1
        0x00001afc:    bd10        ..      POP      {r4,pc}
    vTaskResume
        0x00001afe:    b570        p.      PUSH     {r4-r6,lr}
        0x00001b00:    4605        .F      MOV      r5,r0
        0x00001b02:    462c        ,F      MOV      r4,r5
        0x00001b04:    2d00        .-      CMP      r5,#0
        0x00001b06:    d102        ..      BNE      0x1b0e ; vTaskResume + 16
        0x00001b08:    b672        r.      CPSID    i
        0x00001b0a:    bf00        ..      NOP      
        0x00001b0c:    e7fe        ..      B        0x1b0c ; vTaskResume + 14
        0x00001b0e:    48c3        .H      LDR      r0,[pc,#780] ; [0x1e1c] = 0x20000014
        0x00001b10:    6800        .h      LDR      r0,[r0,#0]
        0x00001b12:    4284        .B      CMP      r4,r0
        0x00001b14:    d025        %.      BEQ      0x1b62 ; vTaskResume + 100
        0x00001b16:    2c00        .,      CMP      r4,#0
        0x00001b18:    d023        #.      BEQ      0x1b62 ; vTaskResume + 100
        0x00001b1a:    f002f804    ....    BL       vPortEnterCritical ; 0x3b26
        0x00001b1e:    4620         F      MOV      r0,r4
        0x00001b20:    f7ffffc8    ....    BL       prvTaskIsTaskSuspended ; 0x1ab4
        0x00001b24:    2800        .(      CMP      r0,#0
        0x00001b26:    d01a        ..      BEQ      0x1b5e ; vTaskResume + 96
        0x00001b28:    1d20         .      ADDS     r0,r4,#4
        0x00001b2a:    f7fffb24    ..$.    BL       uxListRemove ; 0x1176
        0x00001b2e:    49c1        .I      LDR      r1,[pc,#772] ; [0x1e34] = 0x2000002c
        0x00001b30:    6ae0        .j      LDR      r0,[r4,#0x2c]
        0x00001b32:    6809        .h      LDR      r1,[r1,#0]
        0x00001b34:    4288        .B      CMP      r0,r1
        0x00001b36:    d902        ..      BLS      0x1b3e ; vTaskResume + 64
        0x00001b38:    49be        .I      LDR      r1,[pc,#760] ; [0x1e34] = 0x2000002c
        0x00001b3a:    6ae0        .j      LDR      r0,[r4,#0x2c]
        0x00001b3c:    6008        .`      STR      r0,[r1,#0]
        0x00001b3e:    2214        ."      MOVS     r2,#0x14
        0x00001b40:    6ae1        .j      LDR      r1,[r4,#0x2c]
        0x00001b42:    4351        QC      MULS     r1,r2,r1
        0x00001b44:    4abc        .J      LDR      r2,[pc,#752] ; [0x1e38] = 0x20000080
        0x00001b46:    1888        ..      ADDS     r0,r1,r2
        0x00001b48:    1d21        !.      ADDS     r1,r4,#4
        0x00001b4a:    f7fffaed    ....    BL       vListInsertEnd ; 0x1128
        0x00001b4e:    49b3        .I      LDR      r1,[pc,#716] ; [0x1e1c] = 0x20000014
        0x00001b50:    6ae0        .j      LDR      r0,[r4,#0x2c]
        0x00001b52:    6809        .h      LDR      r1,[r1,#0]
        0x00001b54:    6ac9        .j      LDR      r1,[r1,#0x2c]
        0x00001b56:    4288        .B      CMP      r0,r1
        0x00001b58:    d301        ..      BCC      0x1b5e ; vTaskResume + 96
        0x00001b5a:    f001ffdb    ....    BL       vPortYield ; 0x3b14
        0x00001b5e:    f001ffed    ....    BL       vPortExitCritical ; 0x3b3c
        0x00001b62:    bd70        p.      POP      {r4-r6,pc}
    xTaskResumeFromISR
        0x00001b64:    b5f8        ..      PUSH     {r3-r7,lr}
        0x00001b66:    4605        .F      MOV      r5,r0
        0x00001b68:    2600        .&      MOVS     r6,#0
        0x00001b6a:    462c        ,F      MOV      r4,r5
        0x00001b6c:    2d00        .-      CMP      r5,#0
        0x00001b6e:    d102        ..      BNE      0x1b76 ; xTaskResumeFromISR + 18
        0x00001b70:    b672        r.      CPSID    i
        0x00001b72:    bf00        ..      NOP      
        0x00001b74:    e7fe        ..      B        0x1b74 ; xTaskResumeFromISR + 16
        0x00001b76:    f7fefacf    ....    BL       ulSetInterruptMaskFromISR ; 0x118
        0x00001b7a:    4607        .F      MOV      r7,r0
        0x00001b7c:    4620         F      MOV      r0,r4
        0x00001b7e:    f7ffff99    ....    BL       prvTaskIsTaskSuspended ; 0x1ab4
        0x00001b82:    2800        .(      CMP      r0,#0
        0x00001b84:    d023        #.      BEQ      0x1bce ; xTaskResumeFromISR + 106
        0x00001b86:    48a8        .H      LDR      r0,[pc,#672] ; [0x1e28] = 0x2000004c
        0x00001b88:    6800        .h      LDR      r0,[r0,#0]
        0x00001b8a:    2800        .(      CMP      r0,#0
        0x00001b8c:    d11a        ..      BNE      0x1bc4 ; xTaskResumeFromISR + 96
        0x00001b8e:    49a3        .I      LDR      r1,[pc,#652] ; [0x1e1c] = 0x20000014
        0x00001b90:    6ae0        .j      LDR      r0,[r4,#0x2c]
        0x00001b92:    6809        .h      LDR      r1,[r1,#0]
        0x00001b94:    6ac9        .j      LDR      r1,[r1,#0x2c]
        0x00001b96:    4288        .B      CMP      r0,r1
        0x00001b98:    d300        ..      BCC      0x1b9c ; xTaskResumeFromISR + 56
        0x00001b9a:    2601        .&      MOVS     r6,#1
        0x00001b9c:    1d20         .      ADDS     r0,r4,#4
        0x00001b9e:    f7fffaea    ....    BL       uxListRemove ; 0x1176
        0x00001ba2:    49a4        .I      LDR      r1,[pc,#656] ; [0x1e34] = 0x2000002c
        0x00001ba4:    6ae0        .j      LDR      r0,[r4,#0x2c]
        0x00001ba6:    6809        .h      LDR      r1,[r1,#0]
        0x00001ba8:    4288        .B      CMP      r0,r1
        0x00001baa:    d902        ..      BLS      0x1bb2 ; xTaskResumeFromISR + 78
        0x00001bac:    49a1        .I      LDR      r1,[pc,#644] ; [0x1e34] = 0x2000002c
        0x00001bae:    6ae0        .j      LDR      r0,[r4,#0x2c]
        0x00001bb0:    6008        .`      STR      r0,[r1,#0]
        0x00001bb2:    2214        ."      MOVS     r2,#0x14
        0x00001bb4:    6ae1        .j      LDR      r1,[r4,#0x2c]
        0x00001bb6:    4351        QC      MULS     r1,r2,r1
        0x00001bb8:    4a9f        .J      LDR      r2,[pc,#636] ; [0x1e38] = 0x20000080
        0x00001bba:    1888        ..      ADDS     r0,r1,r2
        0x00001bbc:    1d21        !.      ADDS     r1,r4,#4
        0x00001bbe:    f7fffab3    ....    BL       vListInsertEnd ; 0x1128
        0x00001bc2:    e004        ..      B        0x1bce ; xTaskResumeFromISR + 106
        0x00001bc4:    4621        !F      MOV      r1,r4
        0x00001bc6:    3118        .1      ADDS     r1,r1,#0x18
        0x00001bc8:    4899        .H      LDR      r0,[pc,#612] ; [0x1e30] = 0x2000010c
        0x00001bca:    f7fffaad    ....    BL       vListInsertEnd ; 0x1128
        0x00001bce:    4638        8F      MOV      r0,r7
        0x00001bd0:    f7fefaa6    ....    BL       vClearInterruptMaskFromISR ; 0x120
        0x00001bd4:    4630        0F      MOV      r0,r6
        0x00001bd6:    bdf8        ..      POP      {r3-r7,pc}
    prvCheckTasksWaitingTermination
        0x00001bd8:    b510        ..      PUSH     {r4,lr}
        0x00001bda:    e016        ..      B        0x1c0a ; prvCheckTasksWaitingTermination + 50
        0x00001bdc:    f001ffa3    ....    BL       vPortEnterCritical ; 0x3b26
        0x00001be0:    4896        .H      LDR      r0,[pc,#600] ; [0x1e3c] = 0x20000120
        0x00001be2:    68c0        .h      LDR      r0,[r0,#0xc]
        0x00001be4:    68c4        .h      LDR      r4,[r0,#0xc]
        0x00001be6:    1d20         .      ADDS     r0,r4,#4
        0x00001be8:    f7fffac5    ....    BL       uxListRemove ; 0x1176
        0x00001bec:    488f        .H      LDR      r0,[pc,#572] ; [0x1e2c] = 0x20000024
        0x00001bee:    6800        .h      LDR      r0,[r0,#0]
        0x00001bf0:    1e40        @.      SUBS     r0,r0,#1
        0x00001bf2:    498e        .I      LDR      r1,[pc,#568] ; [0x1e2c] = 0x20000024
        0x00001bf4:    6008        .`      STR      r0,[r1,#0]
        0x00001bf6:    4892        .H      LDR      r0,[pc,#584] ; [0x1e40] = 0x20000020
        0x00001bf8:    6800        .h      LDR      r0,[r0,#0]
        0x00001bfa:    1e40        @.      SUBS     r0,r0,#1
        0x00001bfc:    4990        .I      LDR      r1,[pc,#576] ; [0x1e40] = 0x20000020
        0x00001bfe:    6008        .`      STR      r0,[r1,#0]
        0x00001c00:    f001ff9c    ....    BL       vPortExitCritical ; 0x3b3c
        0x00001c04:    4620         F      MOV      r0,r4
        0x00001c06:    f7fffbd8    ....    BL       prvDeleteTCB ; 0x13ba
        0x00001c0a:    488d        .H      LDR      r0,[pc,#564] ; [0x1e40] = 0x20000020
        0x00001c0c:    6800        .h      LDR      r0,[r0,#0]
        0x00001c0e:    2800        .(      CMP      r0,#0
        0x00001c10:    d1e4        ..      BNE      0x1bdc ; prvCheckTasksWaitingTermination + 4
        0x00001c12:    bd10        ..      POP      {r4,pc}
    prvIdleTask
        0x00001c14:    bf00        ..      NOP      
        0x00001c16:    f7ffffdf    ....    BL       prvCheckTasksWaitingTermination ; 0x1bd8
        0x00001c1a:    4887        .H      LDR      r0,[pc,#540] ; [0x1e38] = 0x20000080
        0x00001c1c:    6800        .h      LDR      r0,[r0,#0]
        0x00001c1e:    2801        .(      CMP      r0,#1
        0x00001c20:    d901        ..      BLS      0x1c26 ; prvIdleTask + 18
        0x00001c22:    f001ff77    ..w.    BL       vPortYield ; 0x3b14
        0x00001c26:    f7fefba8    ....    BL       vApplicationIdleHook ; 0x37a
        0x00001c2a:    e7f4        ..      B        0x1c16 ; prvIdleTask + 2
    vTaskStartScheduler
        0x00001c2c:    b51c        ..      PUSH     {r2-r4,lr}
        0x00001c2e:    4885        .H      LDR      r0,[pc,#532] ; [0x1e44] = 0x20000048
        0x00001c30:    2100        .!      MOVS     r1,#0
        0x00001c32:    460b        .F      MOV      r3,r1
        0x00001c34:    2232        2"      MOVS     r2,#0x32
        0x00001c36:    9100        ..      STR      r1,[sp,#0]
        0x00001c38:    9001        ..      STR      r0,[sp,#4]
        0x00001c3a:    a183        ..      ADR      r1,{pc}+0x20e ; 0x1e48
        0x00001c3c:    4884        .H      LDR      r0,[pc,#528] ; [0x1e50] = 0x1c15
        0x00001c3e:    f7fffb77    ..w.    BL       xTaskCreate ; 0x1330
        0x00001c42:    4604        .F      MOV      r4,r0
        0x00001c44:    2c01        .,      CMP      r4,#1
        0x00001c46:    d102        ..      BNE      0x1c4e ; vTaskStartScheduler + 34
        0x00001c48:    f001fe3c    ..<.    BL       xTimerCreateTimerTask ; 0x38c4
        0x00001c4c:    4604        .F      MOV      r4,r0
        0x00001c4e:    2c01        .,      CMP      r4,#1
        0x00001c50:    d10d        ..      BNE      0x1c6e ; vTaskStartScheduler + 66
        0x00001c52:    b672        r.      CPSID    i
        0x00001c54:    2000        .       MOVS     r0,#0
        0x00001c56:    43c0        .C      MVNS     r0,r0
        0x00001c58:    497e        ~I      LDR      r1,[pc,#504] ; [0x1e54] = 0x20000044
        0x00001c5a:    6008        .`      STR      r0,[r1,#0]
        0x00001c5c:    2001        .       MOVS     r0,#1
        0x00001c5e:    4971        qI      LDR      r1,[pc,#452] ; [0x1e24] = 0x20000030
        0x00001c60:    6008        .`      STR      r0,[r1,#0]
        0x00001c62:    2000        .       MOVS     r0,#0
        0x00001c64:    497c        |I      LDR      r1,[pc,#496] ; [0x1e58] = 0x20000028
        0x00001c66:    6008        .`      STR      r0,[r1,#0]
        0x00001c68:    f001ff2d    ..-.    BL       xPortStartScheduler ; 0x3ac6
        0x00001c6c:    e00a        ..      B        0x1c84 ; vTaskStartScheduler + 88
        0x00001c6e:    1c60        `.      ADDS     r0,r4,#1
        0x00001c70:    2800        .(      CMP      r0,#0
        0x00001c72:    d001        ..      BEQ      0x1c78 ; vTaskStartScheduler + 76
        0x00001c74:    2001        .       MOVS     r0,#1
        0x00001c76:    e000        ..      B        0x1c7a ; vTaskStartScheduler + 78
        0x00001c78:    2000        .       MOVS     r0,#0
        0x00001c7a:    2800        .(      CMP      r0,#0
        0x00001c7c:    d102        ..      BNE      0x1c84 ; vTaskStartScheduler + 88
        0x00001c7e:    b672        r.      CPSID    i
        0x00001c80:    bf00        ..      NOP      
        0x00001c82:    e7fe        ..      B        0x1c82 ; vTaskStartScheduler + 86
        0x00001c84:    bd1c        ..      POP      {r2-r4,pc}
    vTaskEndScheduler
        0x00001c86:    b510        ..      PUSH     {r4,lr}
        0x00001c88:    b672        r.      CPSID    i
        0x00001c8a:    2000        .       MOVS     r0,#0
        0x00001c8c:    4965        eI      LDR      r1,[pc,#404] ; [0x1e24] = 0x20000030
        0x00001c8e:    6008        .`      STR      r0,[r1,#0]
        0x00001c90:    f001ff31    ..1.    BL       vPortEndScheduler ; 0x3af6
        0x00001c94:    bd10        ..      POP      {r4,pc}
    xTaskGetTickCount
        0x00001c96:    4970        pI      LDR      r1,[pc,#448] ; [0x1e58] = 0x20000028
        0x00001c98:    6808        .h      LDR      r0,[r1,#0]
        0x00001c9a:    4770        pG      BX       lr
    xTaskGetTickCountFromISR
        0x00001c9c:    2100        .!      MOVS     r1,#0
        0x00001c9e:    4a6e        nJ      LDR      r2,[pc,#440] ; [0x1e58] = 0x20000028
        0x00001ca0:    6810        .h      LDR      r0,[r2,#0]
        0x00001ca2:    4770        pG      BX       lr
    uxTaskGetNumberOfTasks
        0x00001ca4:    4861        aH      LDR      r0,[pc,#388] ; [0x1e2c] = 0x20000024
        0x00001ca6:    6800        .h      LDR      r0,[r0,#0]
        0x00001ca8:    4770        pG      BX       lr
    pcTaskGetName
        0x00001caa:    4601        .F      MOV      r1,r0
        0x00001cac:    2900        .)      CMP      r1,#0
        0x00001cae:    d102        ..      BNE      0x1cb6 ; pcTaskGetName + 12
        0x00001cb0:    485a        ZH      LDR      r0,[pc,#360] ; [0x1e1c] = 0x20000014
        0x00001cb2:    6800        .h      LDR      r0,[r0,#0]
        0x00001cb4:    e000        ..      B        0x1cb8 ; pcTaskGetName + 14
        0x00001cb6:    4608        .F      MOV      r0,r1
        0x00001cb8:    4602        .F      MOV      r2,r0
        0x00001cba:    2a00        .*      CMP      r2,#0
        0x00001cbc:    d102        ..      BNE      0x1cc4 ; pcTaskGetName + 26
        0x00001cbe:    b672        r.      CPSID    i
        0x00001cc0:    bf00        ..      NOP      
        0x00001cc2:    e7fe        ..      B        0x1cc2 ; pcTaskGetName + 24
        0x00001cc4:    4610        .F      MOV      r0,r2
        0x00001cc6:    3034        40      ADDS     r0,r0,#0x34
        0x00001cc8:    4770        pG      BX       lr
    prvTaskCheckFreeStackSpace
        0x00001cca:    4602        .F      MOV      r2,r0
        0x00001ccc:    2100        .!      MOVS     r1,#0
        0x00001cce:    e001        ..      B        0x1cd4 ; prvTaskCheckFreeStackSpace + 10
        0x00001cd0:    1c52        R.      ADDS     r2,r2,#1
        0x00001cd2:    1c49        I.      ADDS     r1,r1,#1
        0x00001cd4:    7810        .x      LDRB     r0,[r2,#0]
        0x00001cd6:    28a5        .(      CMP      r0,#0xa5
        0x00001cd8:    d0fa        ..      BEQ      0x1cd0 ; prvTaskCheckFreeStackSpace + 6
        0x00001cda:    0889        ..      LSRS     r1,r1,#2
        0x00001cdc:    b288        ..      UXTH     r0,r1
        0x00001cde:    4770        pG      BX       lr
    vTaskGetInfo
        0x00001ce0:    b5ff        ..      PUSH     {r0-r7,lr}
        0x00001ce2:    b081        ..      SUB      sp,sp,#4
        0x00001ce4:    4607        .F      MOV      r7,r0
        0x00001ce6:    460c        .F      MOV      r4,r1
        0x00001ce8:    461e        .F      MOV      r6,r3
        0x00001cea:    2f00        ./      CMP      r7,#0
        0x00001cec:    d102        ..      BNE      0x1cf4 ; vTaskGetInfo + 20
        0x00001cee:    484b        KH      LDR      r0,[pc,#300] ; [0x1e1c] = 0x20000014
        0x00001cf0:    6800        .h      LDR      r0,[r0,#0]
        0x00001cf2:    e000        ..      B        0x1cf6 ; vTaskGetInfo + 22
        0x00001cf4:    4638        8F      MOV      r0,r7
        0x00001cf6:    4605        .F      MOV      r5,r0
        0x00001cf8:    6025        %`      STR      r5,[r4,#0]
        0x00001cfa:    4628        (F      MOV      r0,r5
        0x00001cfc:    3034        40      ADDS     r0,r0,#0x34
        0x00001cfe:    6060        ``      STR      r0,[r4,#4]
        0x00001d00:    6ae8        .j      LDR      r0,[r5,#0x2c]
        0x00001d02:    6120         a      STR      r0,[r4,#0x10]
        0x00001d04:    6b28        (k      LDR      r0,[r5,#0x30]
        0x00001d06:    61e0        .a      STR      r0,[r4,#0x1c]
        0x00001d08:    6c28        (l      LDR      r0,[r5,#0x40]
        0x00001d0a:    60a0        .`      STR      r0,[r4,#8]
        0x00001d0c:    6ca8        .l      LDR      r0,[r5,#0x48]
        0x00001d0e:    6160        `a      STR      r0,[r4,#0x14]
        0x00001d10:    2000        .       MOVS     r0,#0
        0x00001d12:    61a0        .a      STR      r0,[r4,#0x18]
        0x00001d14:    2e05        ..      CMP      r6,#5
        0x00001d16:    d013        ..      BEQ      0x1d40 ; vTaskGetInfo + 96
        0x00001d18:    4840        @H      LDR      r0,[pc,#256] ; [0x1e1c] = 0x20000014
        0x00001d1a:    6800        .h      LDR      r0,[r0,#0]
        0x00001d1c:    4285        .B      CMP      r5,r0
        0x00001d1e:    d102        ..      BNE      0x1d26 ; vTaskGetInfo + 70
        0x00001d20:    2000        .       MOVS     r0,#0
        0x00001d22:    7320         s      STRB     r0,[r4,#0xc]
        0x00001d24:    e010        ..      B        0x1d48 ; vTaskGetInfo + 104
        0x00001d26:    7326        &s      STRB     r6,[r4,#0xc]
        0x00001d28:    2e03        ..      CMP      r6,#3
        0x00001d2a:    d10d        ..      BNE      0x1d48 ; vTaskGetInfo + 104
        0x00001d2c:    f7fffce9    ....    BL       vTaskSuspendAll ; 0x1702
        0x00001d30:    6aa8        .j      LDR      r0,[r5,#0x28]
        0x00001d32:    2800        .(      CMP      r0,#0
        0x00001d34:    d001        ..      BEQ      0x1d3a ; vTaskGetInfo + 90
        0x00001d36:    2002        .       MOVS     r0,#2
        0x00001d38:    7320         s      STRB     r0,[r4,#0xc]
        0x00001d3a:    f7fffc21    ..!.    BL       xTaskResumeAll ; 0x1580
        0x00001d3e:    e003        ..      B        0x1d48 ; vTaskGetInfo + 104
        0x00001d40:    4628        (F      MOV      r0,r5
        0x00001d42:    f7fffd4c    ..L.    BL       eTaskGetState ; 0x17de
        0x00001d46:    7320         s      STRB     r0,[r4,#0xc]
        0x00001d48:    9803        ..      LDR      r0,[sp,#0xc]
        0x00001d4a:    2800        .(      CMP      r0,#0
        0x00001d4c:    d004        ..      BEQ      0x1d58 ; vTaskGetInfo + 120
        0x00001d4e:    6b28        (k      LDR      r0,[r5,#0x30]
        0x00001d50:    f7ffffbb    ....    BL       prvTaskCheckFreeStackSpace ; 0x1cca
        0x00001d54:    8420         .      STRH     r0,[r4,#0x20]
        0x00001d56:    e001        ..      B        0x1d5c ; vTaskGetInfo + 124
        0x00001d58:    2000        .       MOVS     r0,#0
        0x00001d5a:    8420         .      STRH     r0,[r4,#0x20]
        0x00001d5c:    b005        ..      ADD      sp,sp,#0x14
        0x00001d5e:    bdf0        ..      POP      {r4-r7,pc}
    prvListTasksWithinSingleList
        0x00001d60:    b5f7        ..      PUSH     {r0-r2,r4-r7,lr}
        0x00001d62:    b082        ..      SUB      sp,sp,#8
        0x00001d64:    4607        .F      MOV      r7,r0
        0x00001d66:    460c        .F      MOV      r4,r1
        0x00001d68:    2600        .&      MOVS     r6,#0
        0x00001d6a:    6820         h      LDR      r0,[r4,#0]
        0x00001d6c:    2800        .(      CMP      r0,#0
        0x00001d6e:    d029        ).      BEQ      0x1dc4 ; prvListTasksWithinSingleList + 100
        0x00001d70:    4620         F      MOV      r0,r4
        0x00001d72:    6841        Ah      LDR      r1,[r0,#4]
        0x00001d74:    6849        Ih      LDR      r1,[r1,#4]
        0x00001d76:    6041        A`      STR      r1,[r0,#4]
        0x00001d78:    4601        .F      MOV      r1,r0
        0x00001d7a:    3108        .1      ADDS     r1,r1,#8
        0x00001d7c:    6842        Bh      LDR      r2,[r0,#4]
        0x00001d7e:    428a        .B      CMP      r2,r1
        0x00001d80:    d102        ..      BNE      0x1d88 ; prvListTasksWithinSingleList + 40
        0x00001d82:    6841        Ah      LDR      r1,[r0,#4]
        0x00001d84:    6849        Ih      LDR      r1,[r1,#4]
        0x00001d86:    6041        A`      STR      r1,[r0,#4]
        0x00001d88:    6841        Ah      LDR      r1,[r0,#4]
        0x00001d8a:    68c9        .h      LDR      r1,[r1,#0xc]
        0x00001d8c:    9101        ..      STR      r1,[sp,#4]
        0x00001d8e:    bf00        ..      NOP      
        0x00001d90:    4620         F      MOV      r0,r4
        0x00001d92:    6841        Ah      LDR      r1,[r0,#4]
        0x00001d94:    6849        Ih      LDR      r1,[r1,#4]
        0x00001d96:    6041        A`      STR      r1,[r0,#4]
        0x00001d98:    4601        .F      MOV      r1,r0
        0x00001d9a:    3108        .1      ADDS     r1,r1,#8
        0x00001d9c:    6842        Bh      LDR      r2,[r0,#4]
        0x00001d9e:    428a        .B      CMP      r2,r1
        0x00001da0:    d102        ..      BNE      0x1da8 ; prvListTasksWithinSingleList + 72
        0x00001da2:    6841        Ah      LDR      r1,[r0,#4]
        0x00001da4:    6849        Ih      LDR      r1,[r1,#4]
        0x00001da6:    6041        A`      STR      r1,[r0,#4]
        0x00001da8:    6841        Ah      LDR      r1,[r0,#4]
        0x00001daa:    68cd        .h      LDR      r5,[r1,#0xc]
        0x00001dac:    2024        $       MOVS     r0,#0x24
        0x00001dae:    4370        pC      MULS     r0,r6,r0
        0x00001db0:    19c1        ..      ADDS     r1,r0,r7
        0x00001db2:    2201        ."      MOVS     r2,#1
        0x00001db4:    4628        (F      MOV      r0,r5
        0x00001db6:    9b04        ..      LDR      r3,[sp,#0x10]
        0x00001db8:    f7ffff92    ....    BL       vTaskGetInfo ; 0x1ce0
        0x00001dbc:    1c76        v.      ADDS     r6,r6,#1
        0x00001dbe:    9801        ..      LDR      r0,[sp,#4]
        0x00001dc0:    4285        .B      CMP      r5,r0
        0x00001dc2:    d1e5        ..      BNE      0x1d90 ; prvListTasksWithinSingleList + 48
        0x00001dc4:    4630        0F      MOV      r0,r6
        0x00001dc6:    b005        ..      ADD      sp,sp,#0x14
        0x00001dc8:    bdf0        ..      POP      {r4-r7,pc}
    uxTaskGetSystemState
        0x00001dca:    b5f7        ..      PUSH     {r0-r2,r4-r7,lr}
        0x00001dcc:    4605        .F      MOV      r5,r0
        0x00001dce:    4616        .F      MOV      r6,r2
        0x00001dd0:    2400        .$      MOVS     r4,#0
        0x00001dd2:    2705        .'      MOVS     r7,#5
        0x00001dd4:    f7fffc95    ....    BL       vTaskSuspendAll ; 0x1702
        0x00001dd8:    4914        .I      LDR      r1,[pc,#80] ; [0x1e2c] = 0x20000024
        0x00001dda:    9801        ..      LDR      r0,[sp,#4]
        0x00001ddc:    6809        .h      LDR      r1,[r1,#0]
        0x00001dde:    4288        .B      CMP      r0,r1
        0x00001de0:    d357        W.      BCC      0x1e92 ; uxTaskGetSystemState + 200
        0x00001de2:    bf00        ..      NOP      
        0x00001de4:    1e7f        ..      SUBS     r7,r7,#1
        0x00001de6:    2214        ."      MOVS     r2,#0x14
        0x00001de8:    437a        zC      MULS     r2,r7,r2
        0x00001dea:    4b13        .K      LDR      r3,[pc,#76] ; [0x1e38] = 0x20000080
        0x00001dec:    18d1        ..      ADDS     r1,r2,r3
        0x00001dee:    2224        $"      MOVS     r2,#0x24
        0x00001df0:    4362        bC      MULS     r2,r4,r2
        0x00001df2:    1950        P.      ADDS     r0,r2,r5
        0x00001df4:    2201        ."      MOVS     r2,#1
        0x00001df6:    f7ffffb3    ....    BL       prvListTasksWithinSingleList ; 0x1d60
        0x00001dfa:    1904        ..      ADDS     r4,r0,r4
        0x00001dfc:    2f00        ./      CMP      r7,#0
        0x00001dfe:    d1f1        ..      BNE      0x1de4 ; uxTaskGetSystemState + 26
        0x00001e00:    2124        $!      MOVS     r1,#0x24
        0x00001e02:    4361        aC      MULS     r1,r4,r1
        0x00001e04:    1948        H.      ADDS     r0,r1,r5
        0x00001e06:    2202        ."      MOVS     r2,#2
        0x00001e08:    4914        .I      LDR      r1,[pc,#80] ; [0x1e5c] = 0x20000018
        0x00001e0a:    6809        .h      LDR      r1,[r1,#0]
        0x00001e0c:    f7ffffa8    ....    BL       prvListTasksWithinSingleList ; 0x1d60
        0x00001e10:    1904        ..      ADDS     r4,r0,r4
        0x00001e12:    2124        $!      MOVS     r1,#0x24
        0x00001e14:    4361        aC      MULS     r1,r4,r1
        0x00001e16:    1948        H.      ADDS     r0,r1,r5
        0x00001e18:    2202        ."      MOVS     r2,#2
        0x00001e1a:    e021        !.      B        0x1e60 ; uxTaskGetSystemState + 150
    $d
        0x00001e1c:    20000014    ...     DCD    536870932
        0x00001e20:    20000134    4..     DCD    536871220
        0x00001e24:    20000030    0..     DCD    536870960
        0x00001e28:    2000004c    L..     DCD    536870988
        0x00001e2c:    20000024    $..     DCD    536870948
        0x00001e30:    2000010c    ...     DCD    536871180
        0x00001e34:    2000002c    ,..     DCD    536870956
        0x00001e38:    20000080    ...     DCD    536871040
        0x00001e3c:    20000120     ..     DCD    536871200
        0x00001e40:    20000020     ..     DCD    536870944
        0x00001e44:    20000048    H..     DCD    536870984
        0x00001e48:    454c4449    IDLE    DCD    1162626121
        0x00001e4c:    00000000    ....    DCD    0
        0x00001e50:    00001c15    ....    DCD    7189
        0x00001e54:    20000044    D..     DCD    536870980
        0x00001e58:    20000028    (..     DCD    536870952
        0x00001e5c:    20000018    ...     DCD    536870936
    $t
        0x00001e60:    49fb        .I      LDR      r1,[pc,#1004] ; [0x2250] = 0x2000001c
        0x00001e62:    6809        .h      LDR      r1,[r1,#0]
        0x00001e64:    f7ffff7c    ..|.    BL       prvListTasksWithinSingleList ; 0x1d60
        0x00001e68:    1904        ..      ADDS     r4,r0,r4
        0x00001e6a:    2124        $!      MOVS     r1,#0x24
        0x00001e6c:    4361        aC      MULS     r1,r4,r1
        0x00001e6e:    1948        H.      ADDS     r0,r1,r5
        0x00001e70:    2204        ."      MOVS     r2,#4
        0x00001e72:    49f8        .I      LDR      r1,[pc,#992] ; [0x2254] = 0x20000120
        0x00001e74:    f7ffff74    ..t.    BL       prvListTasksWithinSingleList ; 0x1d60
        0x00001e78:    1904        ..      ADDS     r4,r0,r4
        0x00001e7a:    2124        $!      MOVS     r1,#0x24
        0x00001e7c:    4361        aC      MULS     r1,r4,r1
        0x00001e7e:    1948        H.      ADDS     r0,r1,r5
        0x00001e80:    2203        ."      MOVS     r2,#3
        0x00001e82:    49f5        .I      LDR      r1,[pc,#980] ; [0x2258] = 0x20000134
        0x00001e84:    f7ffff6c    ..l.    BL       prvListTasksWithinSingleList ; 0x1d60
        0x00001e88:    1904        ..      ADDS     r4,r0,r4
        0x00001e8a:    2e00        ..      CMP      r6,#0
        0x00001e8c:    d001        ..      BEQ      0x1e92 ; uxTaskGetSystemState + 200
        0x00001e8e:    2000        .       MOVS     r0,#0
        0x00001e90:    6030        0`      STR      r0,[r6,#0]
        0x00001e92:    f7fffb75    ..u.    BL       xTaskResumeAll ; 0x1580
        0x00001e96:    4620         F      MOV      r0,r4
        0x00001e98:    bdfe        ..      POP      {r1-r7,pc}
    vTaskPlaceOnEventList
        0x00001e9a:    b570        p.      PUSH     {r4-r6,lr}
        0x00001e9c:    4604        .F      MOV      r4,r0
        0x00001e9e:    460d        .F      MOV      r5,r1
        0x00001ea0:    2c00        .,      CMP      r4,#0
        0x00001ea2:    d102        ..      BNE      0x1eaa ; vTaskPlaceOnEventList + 16
        0x00001ea4:    b672        r.      CPSID    i
        0x00001ea6:    bf00        ..      NOP      
        0x00001ea8:    e7fe        ..      B        0x1ea8 ; vTaskPlaceOnEventList + 14
        0x00001eaa:    48ec        .H      LDR      r0,[pc,#944] ; [0x225c] = 0x20000014
        0x00001eac:    6801        .h      LDR      r1,[r0,#0]
        0x00001eae:    3118        .1      ADDS     r1,r1,#0x18
        0x00001eb0:    4620         F      MOV      r0,r4
        0x00001eb2:    f7fff945    ..E.    BL       vListInsert ; 0x1140
        0x00001eb6:    2101        .!      MOVS     r1,#1
        0x00001eb8:    4628        (F      MOV      r0,r5
        0x00001eba:    f7fffbf0    ....    BL       prvAddCurrentTaskToDelayedList ; 0x169e
        0x00001ebe:    bd70        p.      POP      {r4-r6,pc}
    vTaskPlaceOnUnorderedEventList
        0x00001ec0:    b570        p.      PUSH     {r4-r6,lr}
        0x00001ec2:    4604        .F      MOV      r4,r0
        0x00001ec4:    460e        .F      MOV      r6,r1
        0x00001ec6:    4615        .F      MOV      r5,r2
        0x00001ec8:    2c00        .,      CMP      r4,#0
        0x00001eca:    d102        ..      BNE      0x1ed2 ; vTaskPlaceOnUnorderedEventList + 18
        0x00001ecc:    b672        r.      CPSID    i
        0x00001ece:    bf00        ..      NOP      
        0x00001ed0:    e7fe        ..      B        0x1ed0 ; vTaskPlaceOnUnorderedEventList + 16
        0x00001ed2:    48e3        .H      LDR      r0,[pc,#908] ; [0x2260] = 0x2000004c
        0x00001ed4:    6800        .h      LDR      r0,[r0,#0]
        0x00001ed6:    2800        .(      CMP      r0,#0
        0x00001ed8:    d001        ..      BEQ      0x1ede ; vTaskPlaceOnUnorderedEventList + 30
        0x00001eda:    2001        .       MOVS     r0,#1
        0x00001edc:    e000        ..      B        0x1ee0 ; vTaskPlaceOnUnorderedEventList + 32
        0x00001ede:    2000        .       MOVS     r0,#0
        0x00001ee0:    2800        .(      CMP      r0,#0
        0x00001ee2:    d102        ..      BNE      0x1eea ; vTaskPlaceOnUnorderedEventList + 42
        0x00001ee4:    b672        r.      CPSID    i
        0x00001ee6:    bf00        ..      NOP      
        0x00001ee8:    e7fe        ..      B        0x1ee8 ; vTaskPlaceOnUnorderedEventList + 40
        0x00001eea:    2001        .       MOVS     r0,#1
        0x00001eec:    07c0        ..      LSLS     r0,r0,#31
        0x00001eee:    4330        0C      ORRS     r0,r0,r6
        0x00001ef0:    49da        .I      LDR      r1,[pc,#872] ; [0x225c] = 0x20000014
        0x00001ef2:    6809        .h      LDR      r1,[r1,#0]
        0x00001ef4:    6188        .a      STR      r0,[r1,#0x18]
        0x00001ef6:    48d9        .H      LDR      r0,[pc,#868] ; [0x225c] = 0x20000014
        0x00001ef8:    6801        .h      LDR      r1,[r0,#0]
        0x00001efa:    3118        .1      ADDS     r1,r1,#0x18
        0x00001efc:    4620         F      MOV      r0,r4
        0x00001efe:    f7fff913    ....    BL       vListInsertEnd ; 0x1128
        0x00001f02:    2101        .!      MOVS     r1,#1
        0x00001f04:    4628        (F      MOV      r0,r5
        0x00001f06:    f7fffbca    ....    BL       prvAddCurrentTaskToDelayedList ; 0x169e
        0x00001f0a:    bd70        p.      POP      {r4-r6,pc}
    vTaskPlaceOnEventListRestricted
        0x00001f0c:    b570        p.      PUSH     {r4-r6,lr}
        0x00001f0e:    4605        .F      MOV      r5,r0
        0x00001f10:    460e        .F      MOV      r6,r1
        0x00001f12:    4614        .F      MOV      r4,r2
        0x00001f14:    2d00        .-      CMP      r5,#0
        0x00001f16:    d102        ..      BNE      0x1f1e ; vTaskPlaceOnEventListRestricted + 18
        0x00001f18:    b672        r.      CPSID    i
        0x00001f1a:    bf00        ..      NOP      
        0x00001f1c:    e7fe        ..      B        0x1f1c ; vTaskPlaceOnEventListRestricted + 16
        0x00001f1e:    48cf        .H      LDR      r0,[pc,#828] ; [0x225c] = 0x20000014
        0x00001f20:    6801        .h      LDR      r1,[r0,#0]
        0x00001f22:    3118        .1      ADDS     r1,r1,#0x18
        0x00001f24:    4628        (F      MOV      r0,r5
        0x00001f26:    f7fff8ff    ....    BL       vListInsertEnd ; 0x1128
        0x00001f2a:    2c00        .,      CMP      r4,#0
        0x00001f2c:    d001        ..      BEQ      0x1f32 ; vTaskPlaceOnEventListRestricted + 38
        0x00001f2e:    2600        .&      MOVS     r6,#0
        0x00001f30:    43f6        .C      MVNS     r6,r6
        0x00001f32:    4621        !F      MOV      r1,r4
        0x00001f34:    4630        0F      MOV      r0,r6
        0x00001f36:    f7fffbb2    ....    BL       prvAddCurrentTaskToDelayedList ; 0x169e
        0x00001f3a:    bd70        p.      POP      {r4-r6,pc}
    xTaskRemoveFromEventList
        0x00001f3c:    b570        p.      PUSH     {r4-r6,lr}
        0x00001f3e:    4606        .F      MOV      r6,r0
        0x00001f40:    68f0        .h      LDR      r0,[r6,#0xc]
        0x00001f42:    68c4        .h      LDR      r4,[r0,#0xc]
        0x00001f44:    2c00        .,      CMP      r4,#0
        0x00001f46:    d102        ..      BNE      0x1f4e ; xTaskRemoveFromEventList + 18
        0x00001f48:    b672        r.      CPSID    i
        0x00001f4a:    bf00        ..      NOP      
        0x00001f4c:    e7fe        ..      B        0x1f4c ; xTaskRemoveFromEventList + 16
        0x00001f4e:    4620         F      MOV      r0,r4
        0x00001f50:    3018        .0      ADDS     r0,r0,#0x18
        0x00001f52:    f7fff910    ....    BL       uxListRemove ; 0x1176
        0x00001f56:    48c2        .H      LDR      r0,[pc,#776] ; [0x2260] = 0x2000004c
        0x00001f58:    6800        .h      LDR      r0,[r0,#0]
        0x00001f5a:    2800        .(      CMP      r0,#0
        0x00001f5c:    d113        ..      BNE      0x1f86 ; xTaskRemoveFromEventList + 74
        0x00001f5e:    1d20         .      ADDS     r0,r4,#4
        0x00001f60:    f7fff909    ....    BL       uxListRemove ; 0x1176
        0x00001f64:    49bf        .I      LDR      r1,[pc,#764] ; [0x2264] = 0x2000002c
        0x00001f66:    6ae0        .j      LDR      r0,[r4,#0x2c]
        0x00001f68:    6809        .h      LDR      r1,[r1,#0]
        0x00001f6a:    4288        .B      CMP      r0,r1
        0x00001f6c:    d902        ..      BLS      0x1f74 ; xTaskRemoveFromEventList + 56
        0x00001f6e:    49bd        .I      LDR      r1,[pc,#756] ; [0x2264] = 0x2000002c
        0x00001f70:    6ae0        .j      LDR      r0,[r4,#0x2c]
        0x00001f72:    6008        .`      STR      r0,[r1,#0]
        0x00001f74:    2214        ."      MOVS     r2,#0x14
        0x00001f76:    6ae1        .j      LDR      r1,[r4,#0x2c]
        0x00001f78:    4351        QC      MULS     r1,r2,r1
        0x00001f7a:    4abb        .J      LDR      r2,[pc,#748] ; [0x2268] = 0x20000080
        0x00001f7c:    1888        ..      ADDS     r0,r1,r2
        0x00001f7e:    1d21        !.      ADDS     r1,r4,#4
        0x00001f80:    f7fff8d2    ....    BL       vListInsertEnd ; 0x1128
        0x00001f84:    e004        ..      B        0x1f90 ; xTaskRemoveFromEventList + 84
        0x00001f86:    4621        !F      MOV      r1,r4
        0x00001f88:    3118        .1      ADDS     r1,r1,#0x18
        0x00001f8a:    48b8        .H      LDR      r0,[pc,#736] ; [0x226c] = 0x2000010c
        0x00001f8c:    f7fff8cc    ....    BL       vListInsertEnd ; 0x1128
        0x00001f90:    49b2        .I      LDR      r1,[pc,#712] ; [0x225c] = 0x20000014
        0x00001f92:    6ae0        .j      LDR      r0,[r4,#0x2c]
        0x00001f94:    6809        .h      LDR      r1,[r1,#0]
        0x00001f96:    6ac9        .j      LDR      r1,[r1,#0x2c]
        0x00001f98:    4288        .B      CMP      r0,r1
        0x00001f9a:    d904        ..      BLS      0x1fa6 ; xTaskRemoveFromEventList + 106
        0x00001f9c:    2501        .%      MOVS     r5,#1
        0x00001f9e:    2001        .       MOVS     r0,#1
        0x00001fa0:    49b3        .I      LDR      r1,[pc,#716] ; [0x2270] = 0x20000038
        0x00001fa2:    6008        .`      STR      r0,[r1,#0]
        0x00001fa4:    e000        ..      B        0x1fa8 ; xTaskRemoveFromEventList + 108
        0x00001fa6:    2500        .%      MOVS     r5,#0
        0x00001fa8:    4628        (F      MOV      r0,r5
        0x00001faa:    bd70        p.      POP      {r4-r6,pc}
    vTaskRemoveFromUnorderedEventList
        0x00001fac:    b570        p.      PUSH     {r4-r6,lr}
        0x00001fae:    4605        .F      MOV      r5,r0
        0x00001fb0:    460e        .F      MOV      r6,r1
        0x00001fb2:    48ab        .H      LDR      r0,[pc,#684] ; [0x2260] = 0x2000004c
        0x00001fb4:    6800        .h      LDR      r0,[r0,#0]
        0x00001fb6:    2800        .(      CMP      r0,#0
        0x00001fb8:    d001        ..      BEQ      0x1fbe ; vTaskRemoveFromUnorderedEventList + 18
        0x00001fba:    2001        .       MOVS     r0,#1
        0x00001fbc:    e000        ..      B        0x1fc0 ; vTaskRemoveFromUnorderedEventList + 20
        0x00001fbe:    2000        .       MOVS     r0,#0
        0x00001fc0:    2800        .(      CMP      r0,#0
        0x00001fc2:    d102        ..      BNE      0x1fca ; vTaskRemoveFromUnorderedEventList + 30
        0x00001fc4:    b672        r.      CPSID    i
        0x00001fc6:    bf00        ..      NOP      
        0x00001fc8:    e7fe        ..      B        0x1fc8 ; vTaskRemoveFromUnorderedEventList + 28
        0x00001fca:    2001        .       MOVS     r0,#1
        0x00001fcc:    07c0        ..      LSLS     r0,r0,#31
        0x00001fce:    4330        0C      ORRS     r0,r0,r6
        0x00001fd0:    6028        (`      STR      r0,[r5,#0]
        0x00001fd2:    68ec        .h      LDR      r4,[r5,#0xc]
        0x00001fd4:    2c00        .,      CMP      r4,#0
        0x00001fd6:    d102        ..      BNE      0x1fde ; vTaskRemoveFromUnorderedEventList + 50
        0x00001fd8:    b672        r.      CPSID    i
        0x00001fda:    bf00        ..      NOP      
        0x00001fdc:    e7fe        ..      B        0x1fdc ; vTaskRemoveFromUnorderedEventList + 48
        0x00001fde:    4628        (F      MOV      r0,r5
        0x00001fe0:    f7fff8c9    ....    BL       uxListRemove ; 0x1176
        0x00001fe4:    1d20         .      ADDS     r0,r4,#4
        0x00001fe6:    f7fff8c6    ....    BL       uxListRemove ; 0x1176
        0x00001fea:    499e        .I      LDR      r1,[pc,#632] ; [0x2264] = 0x2000002c
        0x00001fec:    6ae0        .j      LDR      r0,[r4,#0x2c]
        0x00001fee:    6809        .h      LDR      r1,[r1,#0]
        0x00001ff0:    4288        .B      CMP      r0,r1
        0x00001ff2:    d902        ..      BLS      0x1ffa ; vTaskRemoveFromUnorderedEventList + 78
        0x00001ff4:    499b        .I      LDR      r1,[pc,#620] ; [0x2264] = 0x2000002c
        0x00001ff6:    6ae0        .j      LDR      r0,[r4,#0x2c]
        0x00001ff8:    6008        .`      STR      r0,[r1,#0]
        0x00001ffa:    2214        ."      MOVS     r2,#0x14
        0x00001ffc:    6ae1        .j      LDR      r1,[r4,#0x2c]
        0x00001ffe:    4351        QC      MULS     r1,r2,r1
        0x00002000:    4a99        .J      LDR      r2,[pc,#612] ; [0x2268] = 0x20000080
        0x00002002:    1888        ..      ADDS     r0,r1,r2
        0x00002004:    1d21        !.      ADDS     r1,r4,#4
        0x00002006:    f7fff88f    ....    BL       vListInsertEnd ; 0x1128
        0x0000200a:    4994        .I      LDR      r1,[pc,#592] ; [0x225c] = 0x20000014
        0x0000200c:    6ae0        .j      LDR      r0,[r4,#0x2c]
        0x0000200e:    6809        .h      LDR      r1,[r1,#0]
        0x00002010:    6ac9        .j      LDR      r1,[r1,#0x2c]
        0x00002012:    4288        .B      CMP      r0,r1
        0x00002014:    d902        ..      BLS      0x201c ; vTaskRemoveFromUnorderedEventList + 112
        0x00002016:    2001        .       MOVS     r0,#1
        0x00002018:    4995        .I      LDR      r1,[pc,#596] ; [0x2270] = 0x20000038
        0x0000201a:    6008        .`      STR      r0,[r1,#0]
        0x0000201c:    bd70        p.      POP      {r4-r6,pc}
    vTaskSetTimeOutState
        0x0000201e:    b510        ..      PUSH     {r4,lr}
        0x00002020:    4604        .F      MOV      r4,r0
        0x00002022:    2c00        .,      CMP      r4,#0
        0x00002024:    d102        ..      BNE      0x202c ; vTaskSetTimeOutState + 14
        0x00002026:    b672        r.      CPSID    i
        0x00002028:    bf00        ..      NOP      
        0x0000202a:    e7fe        ..      B        0x202a ; vTaskSetTimeOutState + 12
        0x0000202c:    f001fd7b    ..{.    BL       vPortEnterCritical ; 0x3b26
        0x00002030:    4890        .H      LDR      r0,[pc,#576] ; [0x2274] = 0x2000003c
        0x00002032:    6800        .h      LDR      r0,[r0,#0]
        0x00002034:    6020         `      STR      r0,[r4,#0]
        0x00002036:    4890        .H      LDR      r0,[pc,#576] ; [0x2278] = 0x20000028
        0x00002038:    6800        .h      LDR      r0,[r0,#0]
        0x0000203a:    6060        ``      STR      r0,[r4,#4]
        0x0000203c:    f001fd7e    ..~.    BL       vPortExitCritical ; 0x3b3c
        0x00002040:    bd10        ..      POP      {r4,pc}
    vTaskInternalSetTimeOutState
        0x00002042:    498c        .I      LDR      r1,[pc,#560] ; [0x2274] = 0x2000003c
        0x00002044:    6809        .h      LDR      r1,[r1,#0]
        0x00002046:    6001        .`      STR      r1,[r0,#0]
        0x00002048:    498b        .I      LDR      r1,[pc,#556] ; [0x2278] = 0x20000028
        0x0000204a:    6809        .h      LDR      r1,[r1,#0]
        0x0000204c:    6041        A`      STR      r1,[r0,#4]
        0x0000204e:    4770        pG      BX       lr
    xTaskCheckForTimeOut
        0x00002050:    b570        p.      PUSH     {r4-r6,lr}
        0x00002052:    4605        .F      MOV      r5,r0
        0x00002054:    460c        .F      MOV      r4,r1
        0x00002056:    2d00        .-      CMP      r5,#0
        0x00002058:    d102        ..      BNE      0x2060 ; xTaskCheckForTimeOut + 16
        0x0000205a:    b672        r.      CPSID    i
        0x0000205c:    bf00        ..      NOP      
        0x0000205e:    e7fe        ..      B        0x205e ; xTaskCheckForTimeOut + 14
        0x00002060:    2c00        .,      CMP      r4,#0
        0x00002062:    d102        ..      BNE      0x206a ; xTaskCheckForTimeOut + 26
        0x00002064:    b672        r.      CPSID    i
        0x00002066:    bf00        ..      NOP      
        0x00002068:    e7fe        ..      B        0x2068 ; xTaskCheckForTimeOut + 24
        0x0000206a:    f001fd5c    ..\.    BL       vPortEnterCritical ; 0x3b26
        0x0000206e:    4882        .H      LDR      r0,[pc,#520] ; [0x2278] = 0x20000028
        0x00002070:    6802        .h      LDR      r2,[r0,#0]
        0x00002072:    6868        hh      LDR      r0,[r5,#4]
        0x00002074:    1a13        ..      SUBS     r3,r2,r0
        0x00002076:    6820         h      LDR      r0,[r4,#0]
        0x00002078:    1c40        @.      ADDS     r0,r0,#1
        0x0000207a:    2800        .(      CMP      r0,#0
        0x0000207c:    d101        ..      BNE      0x2082 ; xTaskCheckForTimeOut + 50
        0x0000207e:    2600        .&      MOVS     r6,#0
        0x00002080:    e017        ..      B        0x20b2 ; xTaskCheckForTimeOut + 98
        0x00002082:    497c        |I      LDR      r1,[pc,#496] ; [0x2274] = 0x2000003c
        0x00002084:    6828        (h      LDR      r0,[r5,#0]
        0x00002086:    6809        .h      LDR      r1,[r1,#0]
        0x00002088:    4288        .B      CMP      r0,r1
        0x0000208a:    d004        ..      BEQ      0x2096 ; xTaskCheckForTimeOut + 70
        0x0000208c:    6868        hh      LDR      r0,[r5,#4]
        0x0000208e:    4290        .B      CMP      r0,r2
        0x00002090:    d801        ..      BHI      0x2096 ; xTaskCheckForTimeOut + 70
        0x00002092:    2601        .&      MOVS     r6,#1
        0x00002094:    e00d        ..      B        0x20b2 ; xTaskCheckForTimeOut + 98
        0x00002096:    6820         h      LDR      r0,[r4,#0]
        0x00002098:    4298        .B      CMP      r0,r3
        0x0000209a:    d907        ..      BLS      0x20ac ; xTaskCheckForTimeOut + 92
        0x0000209c:    6820         h      LDR      r0,[r4,#0]
        0x0000209e:    1ac0        ..      SUBS     r0,r0,r3
        0x000020a0:    6020         `      STR      r0,[r4,#0]
        0x000020a2:    4628        (F      MOV      r0,r5
        0x000020a4:    f7ffffcd    ....    BL       vTaskInternalSetTimeOutState ; 0x2042
        0x000020a8:    2600        .&      MOVS     r6,#0
        0x000020aa:    e002        ..      B        0x20b2 ; xTaskCheckForTimeOut + 98
        0x000020ac:    2000        .       MOVS     r0,#0
        0x000020ae:    6020         `      STR      r0,[r4,#0]
        0x000020b0:    2601        .&      MOVS     r6,#1
        0x000020b2:    f001fd43    ..C.    BL       vPortExitCritical ; 0x3b3c
        0x000020b6:    4630        0F      MOV      r0,r6
        0x000020b8:    bd70        p.      POP      {r4-r6,pc}
    vTaskMissedYield
        0x000020ba:    2001        .       MOVS     r0,#1
        0x000020bc:    496c        lI      LDR      r1,[pc,#432] ; [0x2270] = 0x20000038
        0x000020be:    6008        .`      STR      r0,[r1,#0]
        0x000020c0:    4770        pG      BX       lr
    uxTaskGetTaskNumber
        0x000020c2:    4601        .F      MOV      r1,r0
        0x000020c4:    2900        .)      CMP      r1,#0
        0x000020c6:    d002        ..      BEQ      0x20ce ; uxTaskGetTaskNumber + 12
        0x000020c8:    460a        .F      MOV      r2,r1
        0x000020ca:    6c50        Pl      LDR      r0,[r2,#0x44]
        0x000020cc:    e000        ..      B        0x20d0 ; uxTaskGetTaskNumber + 14
        0x000020ce:    2000        .       MOVS     r0,#0
        0x000020d0:    4770        pG      BX       lr
    vTaskSetTaskNumber
        0x000020d2:    2800        .(      CMP      r0,#0
        0x000020d4:    d001        ..      BEQ      0x20da ; vTaskSetTaskNumber + 8
        0x000020d6:    4602        .F      MOV      r2,r0
        0x000020d8:    6451        Qd      STR      r1,[r2,#0x44]
        0x000020da:    4770        pG      BX       lr
    xTaskGetCurrentTaskHandle
        0x000020dc:    495f        _I      LDR      r1,[pc,#380] ; [0x225c] = 0x20000014
        0x000020de:    6808        .h      LDR      r0,[r1,#0]
        0x000020e0:    4770        pG      BX       lr
    xTaskGetSchedulerState
        0x000020e2:    4966        fI      LDR      r1,[pc,#408] ; [0x227c] = 0x20000030
        0x000020e4:    6809        .h      LDR      r1,[r1,#0]
        0x000020e6:    2900        .)      CMP      r1,#0
        0x000020e8:    d101        ..      BNE      0x20ee ; xTaskGetSchedulerState + 12
        0x000020ea:    2001        .       MOVS     r0,#1
        0x000020ec:    e006        ..      B        0x20fc ; xTaskGetSchedulerState + 26
        0x000020ee:    495c        \I      LDR      r1,[pc,#368] ; [0x2260] = 0x2000004c
        0x000020f0:    6809        .h      LDR      r1,[r1,#0]
        0x000020f2:    2900        .)      CMP      r1,#0
        0x000020f4:    d101        ..      BNE      0x20fa ; xTaskGetSchedulerState + 24
        0x000020f6:    2002        .       MOVS     r0,#2
        0x000020f8:    e000        ..      B        0x20fc ; xTaskGetSchedulerState + 26
        0x000020fa:    2000        .       MOVS     r0,#0
        0x000020fc:    4770        pG      BX       lr
    xTaskPriorityInherit
        0x000020fe:    b570        p.      PUSH     {r4-r6,lr}
        0x00002100:    4605        .F      MOV      r5,r0
        0x00002102:    462c        ,F      MOV      r4,r5
        0x00002104:    2600        .&      MOVS     r6,#0
        0x00002106:    2d00        .-      CMP      r5,#0
        0x00002108:    d042        B.      BEQ      0x2190 ; xTaskPriorityInherit + 146
        0x0000210a:    4954        TI      LDR      r1,[pc,#336] ; [0x225c] = 0x20000014
        0x0000210c:    6ae0        .j      LDR      r0,[r4,#0x2c]
        0x0000210e:    6809        .h      LDR      r1,[r1,#0]
        0x00002110:    6ac9        .j      LDR      r1,[r1,#0x2c]
        0x00002112:    4288        .B      CMP      r0,r1
        0x00002114:    d235        5.      BCS      0x2182 ; xTaskPriorityInherit + 132
        0x00002116:    69a0        .i      LDR      r0,[r4,#0x18]
        0x00002118:    0fc0        ..      LSRS     r0,r0,#31
        0x0000211a:    07c0        ..      LSLS     r0,r0,#31
        0x0000211c:    2800        .(      CMP      r0,#0
        0x0000211e:    d105        ..      BNE      0x212c ; xTaskPriorityInherit + 46
        0x00002120:    484e        NH      LDR      r0,[pc,#312] ; [0x225c] = 0x20000014
        0x00002122:    6800        .h      LDR      r0,[r0,#0]
        0x00002124:    6ac0        .j      LDR      r0,[r0,#0x2c]
        0x00002126:    2105        .!      MOVS     r1,#5
        0x00002128:    1a08        ..      SUBS     r0,r1,r0
        0x0000212a:    61a0        .a      STR      r0,[r4,#0x18]
        0x0000212c:    2214        ."      MOVS     r2,#0x14
        0x0000212e:    6ae0        .j      LDR      r0,[r4,#0x2c]
        0x00002130:    4350        PC      MULS     r0,r2,r0
        0x00002132:    4a4d        MJ      LDR      r2,[pc,#308] ; [0x2268] = 0x20000080
        0x00002134:    1880        ..      ADDS     r0,r0,r2
        0x00002136:    6961        ai      LDR      r1,[r4,#0x14]
        0x00002138:    4281        .B      CMP      r1,r0
        0x0000213a:    d101        ..      BNE      0x2140 ; xTaskPriorityInherit + 66
        0x0000213c:    2001        .       MOVS     r0,#1
        0x0000213e:    e000        ..      B        0x2142 ; xTaskPriorityInherit + 68
        0x00002140:    2000        .       MOVS     r0,#0
        0x00002142:    2800        .(      CMP      r0,#0
        0x00002144:    d017        ..      BEQ      0x2176 ; xTaskPriorityInherit + 120
        0x00002146:    1d20         .      ADDS     r0,r4,#4
        0x00002148:    f7fff815    ....    BL       uxListRemove ; 0x1176
        0x0000214c:    4843        CH      LDR      r0,[pc,#268] ; [0x225c] = 0x20000014
        0x0000214e:    6800        .h      LDR      r0,[r0,#0]
        0x00002150:    6ac0        .j      LDR      r0,[r0,#0x2c]
        0x00002152:    62e0        .b      STR      r0,[r4,#0x2c]
        0x00002154:    4943        CI      LDR      r1,[pc,#268] ; [0x2264] = 0x2000002c
        0x00002156:    6ae0        .j      LDR      r0,[r4,#0x2c]
        0x00002158:    6809        .h      LDR      r1,[r1,#0]
        0x0000215a:    4288        .B      CMP      r0,r1
        0x0000215c:    d902        ..      BLS      0x2164 ; xTaskPriorityInherit + 102
        0x0000215e:    4941        AI      LDR      r1,[pc,#260] ; [0x2264] = 0x2000002c
        0x00002160:    6ae0        .j      LDR      r0,[r4,#0x2c]
        0x00002162:    6008        .`      STR      r0,[r1,#0]
        0x00002164:    2214        ."      MOVS     r2,#0x14
        0x00002166:    6ae1        .j      LDR      r1,[r4,#0x2c]
        0x00002168:    4351        QC      MULS     r1,r2,r1
        0x0000216a:    4a3f        ?J      LDR      r2,[pc,#252] ; [0x2268] = 0x20000080
        0x0000216c:    1888        ..      ADDS     r0,r1,r2
        0x0000216e:    1d21        !.      ADDS     r1,r4,#4
        0x00002170:    f7feffda    ....    BL       vListInsertEnd ; 0x1128
        0x00002174:    e003        ..      B        0x217e ; xTaskPriorityInherit + 128
        0x00002176:    4839        9H      LDR      r0,[pc,#228] ; [0x225c] = 0x20000014
        0x00002178:    6800        .h      LDR      r0,[r0,#0]
        0x0000217a:    6ac0        .j      LDR      r0,[r0,#0x2c]
        0x0000217c:    62e0        .b      STR      r0,[r4,#0x2c]
        0x0000217e:    2601        .&      MOVS     r6,#1
        0x00002180:    e006        ..      B        0x2190 ; xTaskPriorityInherit + 146
        0x00002182:    4936        6I      LDR      r1,[pc,#216] ; [0x225c] = 0x20000014
        0x00002184:    6ca0        .l      LDR      r0,[r4,#0x48]
        0x00002186:    6809        .h      LDR      r1,[r1,#0]
        0x00002188:    6ac9        .j      LDR      r1,[r1,#0x2c]
        0x0000218a:    4288        .B      CMP      r0,r1
        0x0000218c:    d200        ..      BCS      0x2190 ; xTaskPriorityInherit + 146
        0x0000218e:    2601        .&      MOVS     r6,#1
        0x00002190:    4630        0F      MOV      r0,r6
        0x00002192:    bd70        p.      POP      {r4-r6,pc}
    xTaskPriorityDisinherit
        0x00002194:    b570        p.      PUSH     {r4-r6,lr}
        0x00002196:    4605        .F      MOV      r5,r0
        0x00002198:    462c        ,F      MOV      r4,r5
        0x0000219a:    2600        .&      MOVS     r6,#0
        0x0000219c:    2d00        .-      CMP      r5,#0
        0x0000219e:    d035        5.      BEQ      0x220c ; xTaskPriorityDisinherit + 120
        0x000021a0:    482e        .H      LDR      r0,[pc,#184] ; [0x225c] = 0x20000014
        0x000021a2:    6800        .h      LDR      r0,[r0,#0]
        0x000021a4:    4284        .B      CMP      r4,r0
        0x000021a6:    d101        ..      BNE      0x21ac ; xTaskPriorityDisinherit + 24
        0x000021a8:    2001        .       MOVS     r0,#1
        0x000021aa:    e000        ..      B        0x21ae ; xTaskPriorityDisinherit + 26
        0x000021ac:    2000        .       MOVS     r0,#0
        0x000021ae:    2800        .(      CMP      r0,#0
        0x000021b0:    d102        ..      BNE      0x21b8 ; xTaskPriorityDisinherit + 36
        0x000021b2:    b672        r.      CPSID    i
        0x000021b4:    bf00        ..      NOP      
        0x000021b6:    e7fe        ..      B        0x21b6 ; xTaskPriorityDisinherit + 34
        0x000021b8:    6ce0        .l      LDR      r0,[r4,#0x4c]
        0x000021ba:    2800        .(      CMP      r0,#0
        0x000021bc:    d102        ..      BNE      0x21c4 ; xTaskPriorityDisinherit + 48
        0x000021be:    b672        r.      CPSID    i
        0x000021c0:    bf00        ..      NOP      
        0x000021c2:    e7fe        ..      B        0x21c2 ; xTaskPriorityDisinherit + 46
        0x000021c4:    6ce0        .l      LDR      r0,[r4,#0x4c]
        0x000021c6:    1e40        @.      SUBS     r0,r0,#1
        0x000021c8:    64e0        .d      STR      r0,[r4,#0x4c]
        0x000021ca:    6ca1        .l      LDR      r1,[r4,#0x48]
        0x000021cc:    6ae0        .j      LDR      r0,[r4,#0x2c]
        0x000021ce:    4288        .B      CMP      r0,r1
        0x000021d0:    d01c        ..      BEQ      0x220c ; xTaskPriorityDisinherit + 120
        0x000021d2:    6ce0        .l      LDR      r0,[r4,#0x4c]
        0x000021d4:    2800        .(      CMP      r0,#0
        0x000021d6:    d119        ..      BNE      0x220c ; xTaskPriorityDisinherit + 120
        0x000021d8:    1d20         .      ADDS     r0,r4,#4
        0x000021da:    f7feffcc    ....    BL       uxListRemove ; 0x1176
        0x000021de:    6ca0        .l      LDR      r0,[r4,#0x48]
        0x000021e0:    62e0        .b      STR      r0,[r4,#0x2c]
        0x000021e2:    2105        .!      MOVS     r1,#5
        0x000021e4:    6ae0        .j      LDR      r0,[r4,#0x2c]
        0x000021e6:    1a08        ..      SUBS     r0,r1,r0
        0x000021e8:    61a0        .a      STR      r0,[r4,#0x18]
        0x000021ea:    491e        .I      LDR      r1,[pc,#120] ; [0x2264] = 0x2000002c
        0x000021ec:    6ae0        .j      LDR      r0,[r4,#0x2c]
        0x000021ee:    6809        .h      LDR      r1,[r1,#0]
        0x000021f0:    4288        .B      CMP      r0,r1
        0x000021f2:    d902        ..      BLS      0x21fa ; xTaskPriorityDisinherit + 102
        0x000021f4:    491b        .I      LDR      r1,[pc,#108] ; [0x2264] = 0x2000002c
        0x000021f6:    6ae0        .j      LDR      r0,[r4,#0x2c]
        0x000021f8:    6008        .`      STR      r0,[r1,#0]
        0x000021fa:    2214        ."      MOVS     r2,#0x14
        0x000021fc:    6ae1        .j      LDR      r1,[r4,#0x2c]
        0x000021fe:    4351        QC      MULS     r1,r2,r1
        0x00002200:    4a19        .J      LDR      r2,[pc,#100] ; [0x2268] = 0x20000080
        0x00002202:    1888        ..      ADDS     r0,r1,r2
        0x00002204:    1d21        !.      ADDS     r1,r4,#4
        0x00002206:    f7feff8f    ....    BL       vListInsertEnd ; 0x1128
        0x0000220a:    2601        .&      MOVS     r6,#1
        0x0000220c:    4630        0F      MOV      r0,r6
        0x0000220e:    bd70        p.      POP      {r4-r6,pc}
    vTaskPriorityDisinheritAfterTimeout
        0x00002210:    b5fe        ..      PUSH     {r1-r7,lr}
        0x00002212:    4606        .F      MOV      r6,r0
        0x00002214:    460f        .F      MOV      r7,r1
        0x00002216:    4634        4F      MOV      r4,r6
        0x00002218:    2001        .       MOVS     r0,#1
        0x0000221a:    9000        ..      STR      r0,[sp,#0]
        0x0000221c:    2e00        ..      CMP      r6,#0
        0x0000221e:    d060        `.      BEQ      0x22e2 ; vTaskPriorityDisinheritAfterTimeout + 210
        0x00002220:    6ce0        .l      LDR      r0,[r4,#0x4c]
        0x00002222:    2800        .(      CMP      r0,#0
        0x00002224:    d102        ..      BNE      0x222c ; vTaskPriorityDisinheritAfterTimeout + 28
        0x00002226:    b672        r.      CPSID    i
        0x00002228:    bf00        ..      NOP      
        0x0000222a:    e7fe        ..      B        0x222a ; vTaskPriorityDisinheritAfterTimeout + 26
        0x0000222c:    6ca0        .l      LDR      r0,[r4,#0x48]
        0x0000222e:    42b8        .B      CMP      r0,r7
        0x00002230:    d201        ..      BCS      0x2236 ; vTaskPriorityDisinheritAfterTimeout + 38
        0x00002232:    463d        =F      MOV      r5,r7
        0x00002234:    e000        ..      B        0x2238 ; vTaskPriorityDisinheritAfterTimeout + 40
        0x00002236:    6ca5        .l      LDR      r5,[r4,#0x48]
        0x00002238:    6ae0        .j      LDR      r0,[r4,#0x2c]
        0x0000223a:    42a8        .B      CMP      r0,r5
        0x0000223c:    d051        Q.      BEQ      0x22e2 ; vTaskPriorityDisinheritAfterTimeout + 210
        0x0000223e:    6ce0        .l      LDR      r0,[r4,#0x4c]
        0x00002240:    2801        .(      CMP      r0,#1
        0x00002242:    d14e        N.      BNE      0x22e2 ; vTaskPriorityDisinheritAfterTimeout + 210
        0x00002244:    4805        .H      LDR      r0,[pc,#20] ; [0x225c] = 0x20000014
        0x00002246:    6800        .h      LDR      r0,[r0,#0]
        0x00002248:    4284        .B      CMP      r4,r0
        0x0000224a:    d019        ..      BEQ      0x2280 ; vTaskPriorityDisinheritAfterTimeout + 112
        0x0000224c:    2001        .       MOVS     r0,#1
        0x0000224e:    e018        ..      B        0x2282 ; vTaskPriorityDisinheritAfterTimeout + 114
    $d
        0x00002250:    2000001c    ...     DCD    536870940
        0x00002254:    20000120     ..     DCD    536871200
        0x00002258:    20000134    4..     DCD    536871220
        0x0000225c:    20000014    ...     DCD    536870932
        0x00002260:    2000004c    L..     DCD    536870988
        0x00002264:    2000002c    ,..     DCD    536870956
        0x00002268:    20000080    ...     DCD    536871040
        0x0000226c:    2000010c    ...     DCD    536871180
        0x00002270:    20000038    8..     DCD    536870968
        0x00002274:    2000003c    <..     DCD    536870972
        0x00002278:    20000028    (..     DCD    536870952
        0x0000227c:    20000030    0..     DCD    536870960
    $t
        0x00002280:    2000        .       MOVS     r0,#0
        0x00002282:    2800        .(      CMP      r0,#0
        0x00002284:    d102        ..      BNE      0x228c ; vTaskPriorityDisinheritAfterTimeout + 124
        0x00002286:    b672        r.      CPSID    i
        0x00002288:    bf00        ..      NOP      
        0x0000228a:    e7fe        ..      B        0x228a ; vTaskPriorityDisinheritAfterTimeout + 122
        0x0000228c:    6ae0        .j      LDR      r0,[r4,#0x2c]
        0x0000228e:    9001        ..      STR      r0,[sp,#4]
        0x00002290:    62e5        .b      STR      r5,[r4,#0x2c]
        0x00002292:    69a0        .i      LDR      r0,[r4,#0x18]
        0x00002294:    0fc0        ..      LSRS     r0,r0,#31
        0x00002296:    07c0        ..      LSLS     r0,r0,#31
        0x00002298:    2800        .(      CMP      r0,#0
        0x0000229a:    d102        ..      BNE      0x22a2 ; vTaskPriorityDisinheritAfterTimeout + 146
        0x0000229c:    2005        .       MOVS     r0,#5
        0x0000229e:    1b40        @.      SUBS     r0,r0,r5
        0x000022a0:    61a0        .a      STR      r0,[r4,#0x18]
        0x000022a2:    6961        ai      LDR      r1,[r4,#0x14]
        0x000022a4:    2214        ."      MOVS     r2,#0x14
        0x000022a6:    9801        ..      LDR      r0,[sp,#4]
        0x000022a8:    4350        PC      MULS     r0,r2,r0
        0x000022aa:    4af9        .J      LDR      r2,[pc,#996] ; [0x2690] = 0x20000080
        0x000022ac:    1880        ..      ADDS     r0,r0,r2
        0x000022ae:    4281        .B      CMP      r1,r0
        0x000022b0:    d101        ..      BNE      0x22b6 ; vTaskPriorityDisinheritAfterTimeout + 166
        0x000022b2:    2001        .       MOVS     r0,#1
        0x000022b4:    e000        ..      B        0x22b8 ; vTaskPriorityDisinheritAfterTimeout + 168
        0x000022b6:    2000        .       MOVS     r0,#0
        0x000022b8:    2800        .(      CMP      r0,#0
        0x000022ba:    d012        ..      BEQ      0x22e2 ; vTaskPriorityDisinheritAfterTimeout + 210
        0x000022bc:    1d20         .      ADDS     r0,r4,#4
        0x000022be:    f7feff5a    ..Z.    BL       uxListRemove ; 0x1176
        0x000022c2:    49f4        .I      LDR      r1,[pc,#976] ; [0x2694] = 0x2000002c
        0x000022c4:    6ae0        .j      LDR      r0,[r4,#0x2c]
        0x000022c6:    6809        .h      LDR      r1,[r1,#0]
        0x000022c8:    4288        .B      CMP      r0,r1
        0x000022ca:    d902        ..      BLS      0x22d2 ; vTaskPriorityDisinheritAfterTimeout + 194
        0x000022cc:    49f1        .I      LDR      r1,[pc,#964] ; [0x2694] = 0x2000002c
        0x000022ce:    6ae0        .j      LDR      r0,[r4,#0x2c]
        0x000022d0:    6008        .`      STR      r0,[r1,#0]
        0x000022d2:    2214        ."      MOVS     r2,#0x14
        0x000022d4:    6ae1        .j      LDR      r1,[r4,#0x2c]
        0x000022d6:    4351        QC      MULS     r1,r2,r1
        0x000022d8:    4aed        .J      LDR      r2,[pc,#948] ; [0x2690] = 0x20000080
        0x000022da:    1888        ..      ADDS     r0,r1,r2
        0x000022dc:    1d21        !.      ADDS     r1,r4,#4
        0x000022de:    f7feff23    ..#.    BL       vListInsertEnd ; 0x1128
        0x000022e2:    bdfe        ..      POP      {r1-r7,pc}
    uxTaskResetEventItemValue
        0x000022e4:    49ec        .I      LDR      r1,[pc,#944] ; [0x2698] = 0x20000014
        0x000022e6:    6809        .h      LDR      r1,[r1,#0]
        0x000022e8:    6988        .i      LDR      r0,[r1,#0x18]
        0x000022ea:    49eb        .I      LDR      r1,[pc,#940] ; [0x2698] = 0x20000014
        0x000022ec:    6809        .h      LDR      r1,[r1,#0]
        0x000022ee:    6ac9        .j      LDR      r1,[r1,#0x2c]
        0x000022f0:    2205        ."      MOVS     r2,#5
        0x000022f2:    1a51        Q.      SUBS     r1,r2,r1
        0x000022f4:    4ae8        .J      LDR      r2,[pc,#928] ; [0x2698] = 0x20000014
        0x000022f6:    6812        .h      LDR      r2,[r2,#0]
        0x000022f8:    6191        .a      STR      r1,[r2,#0x18]
        0x000022fa:    4770        pG      BX       lr
    pvTaskIncrementMutexHeldCount
        0x000022fc:    48e6        .H      LDR      r0,[pc,#920] ; [0x2698] = 0x20000014
        0x000022fe:    6800        .h      LDR      r0,[r0,#0]
        0x00002300:    2800        .(      CMP      r0,#0
        0x00002302:    d006        ..      BEQ      0x2312 ; pvTaskIncrementMutexHeldCount + 22
        0x00002304:    49e4        .I      LDR      r1,[pc,#912] ; [0x2698] = 0x20000014
        0x00002306:    6809        .h      LDR      r1,[r1,#0]
        0x00002308:    4608        .F      MOV      r0,r1
        0x0000230a:    304c        L0      ADDS     r0,r0,#0x4c
        0x0000230c:    6cc9        .l      LDR      r1,[r1,#0x4c]
        0x0000230e:    1c49        I.      ADDS     r1,r1,#1
        0x00002310:    6001        .`      STR      r1,[r0,#0]
        0x00002312:    48e1        .H      LDR      r0,[pc,#900] ; [0x2698] = 0x20000014
        0x00002314:    6800        .h      LDR      r0,[r0,#0]
        0x00002316:    4770        pG      BX       lr
    ulTaskNotifyTake
        0x00002318:    b570        p.      PUSH     {r4-r6,lr}
        0x0000231a:    4606        .F      MOV      r6,r0
        0x0000231c:    460d        .F      MOV      r5,r1
        0x0000231e:    f001fc02    ....    BL       vPortEnterCritical ; 0x3b26
        0x00002322:    48dd        .H      LDR      r0,[pc,#884] ; [0x2698] = 0x20000014
        0x00002324:    6800        .h      LDR      r0,[r0,#0]
        0x00002326:    6d00        .m      LDR      r0,[r0,#0x50]
        0x00002328:    2800        .(      CMP      r0,#0
        0x0000232a:    d10b        ..      BNE      0x2344 ; ulTaskNotifyTake + 44
        0x0000232c:    2101        .!      MOVS     r1,#1
        0x0000232e:    48da        .H      LDR      r0,[pc,#872] ; [0x2698] = 0x20000014
        0x00002330:    6800        .h      LDR      r0,[r0,#0]
        0x00002332:    3040        @0      ADDS     r0,r0,#0x40
        0x00002334:    7501        .u      STRB     r1,[r0,#0x14]
        0x00002336:    2d00        .-      CMP      r5,#0
        0x00002338:    d004        ..      BEQ      0x2344 ; ulTaskNotifyTake + 44
        0x0000233a:    4628        (F      MOV      r0,r5
        0x0000233c:    f7fff9af    ....    BL       prvAddCurrentTaskToDelayedList ; 0x169e
        0x00002340:    f001fbe8    ....    BL       vPortYield ; 0x3b14
        0x00002344:    f001fbfa    ....    BL       vPortExitCritical ; 0x3b3c
        0x00002348:    f001fbed    ....    BL       vPortEnterCritical ; 0x3b26
        0x0000234c:    48d2        .H      LDR      r0,[pc,#840] ; [0x2698] = 0x20000014
        0x0000234e:    6800        .h      LDR      r0,[r0,#0]
        0x00002350:    6d04        .m      LDR      r4,[r0,#0x50]
        0x00002352:    2c00        .,      CMP      r4,#0
        0x00002354:    d00a        ..      BEQ      0x236c ; ulTaskNotifyTake + 84
        0x00002356:    2e00        ..      CMP      r6,#0
        0x00002358:    d004        ..      BEQ      0x2364 ; ulTaskNotifyTake + 76
        0x0000235a:    2000        .       MOVS     r0,#0
        0x0000235c:    49ce        .I      LDR      r1,[pc,#824] ; [0x2698] = 0x20000014
        0x0000235e:    6809        .h      LDR      r1,[r1,#0]
        0x00002360:    6508        .e      STR      r0,[r1,#0x50]
        0x00002362:    e003        ..      B        0x236c ; ulTaskNotifyTake + 84
        0x00002364:    1e60        `.      SUBS     r0,r4,#1
        0x00002366:    49cc        .I      LDR      r1,[pc,#816] ; [0x2698] = 0x20000014
        0x00002368:    6809        .h      LDR      r1,[r1,#0]
        0x0000236a:    6508        .e      STR      r0,[r1,#0x50]
        0x0000236c:    2100        .!      MOVS     r1,#0
        0x0000236e:    48ca        .H      LDR      r0,[pc,#808] ; [0x2698] = 0x20000014
        0x00002370:    6800        .h      LDR      r0,[r0,#0]
        0x00002372:    3040        @0      ADDS     r0,r0,#0x40
        0x00002374:    7501        .u      STRB     r1,[r0,#0x14]
        0x00002376:    f001fbe1    ....    BL       vPortExitCritical ; 0x3b3c
        0x0000237a:    4620         F      MOV      r0,r4
        0x0000237c:    bd70        p.      POP      {r4-r6,pc}
    xTaskNotifyWait
        0x0000237e:    b5ff        ..      PUSH     {r0-r7,lr}
        0x00002380:    b081        ..      SUB      sp,sp,#4
        0x00002382:    4607        .F      MOV      r7,r0
        0x00002384:    4614        .F      MOV      r4,r2
        0x00002386:    461d        .F      MOV      r5,r3
        0x00002388:    f001fbcd    ....    BL       vPortEnterCritical ; 0x3b26
        0x0000238c:    48c2        .H      LDR      r0,[pc,#776] ; [0x2698] = 0x20000014
        0x0000238e:    6800        .h      LDR      r0,[r0,#0]
        0x00002390:    3040        @0      ADDS     r0,r0,#0x40
        0x00002392:    7d00        .}      LDRB     r0,[r0,#0x14]
        0x00002394:    2802        .(      CMP      r0,#2
        0x00002396:    d012        ..      BEQ      0x23be ; xTaskNotifyWait + 64
        0x00002398:    49bf        .I      LDR      r1,[pc,#764] ; [0x2698] = 0x20000014
        0x0000239a:    6809        .h      LDR      r1,[r1,#0]
        0x0000239c:    4608        .F      MOV      r0,r1
        0x0000239e:    3050        P0      ADDS     r0,r0,#0x50
        0x000023a0:    6d09        .m      LDR      r1,[r1,#0x50]
        0x000023a2:    43b9        .C      BICS     r1,r1,r7
        0x000023a4:    6001        .`      STR      r1,[r0,#0]
        0x000023a6:    2101        .!      MOVS     r1,#1
        0x000023a8:    48bb        .H      LDR      r0,[pc,#748] ; [0x2698] = 0x20000014
        0x000023aa:    6800        .h      LDR      r0,[r0,#0]
        0x000023ac:    3040        @0      ADDS     r0,r0,#0x40
        0x000023ae:    7501        .u      STRB     r1,[r0,#0x14]
        0x000023b0:    2d00        .-      CMP      r5,#0
        0x000023b2:    d004        ..      BEQ      0x23be ; xTaskNotifyWait + 64
        0x000023b4:    4628        (F      MOV      r0,r5
        0x000023b6:    f7fff972    ..r.    BL       prvAddCurrentTaskToDelayedList ; 0x169e
        0x000023ba:    f001fbab    ....    BL       vPortYield ; 0x3b14
        0x000023be:    f001fbbd    ....    BL       vPortExitCritical ; 0x3b3c
        0x000023c2:    f001fbb0    ....    BL       vPortEnterCritical ; 0x3b26
        0x000023c6:    2c00        .,      CMP      r4,#0
        0x000023c8:    d003        ..      BEQ      0x23d2 ; xTaskNotifyWait + 84
        0x000023ca:    48b3        .H      LDR      r0,[pc,#716] ; [0x2698] = 0x20000014
        0x000023cc:    6800        .h      LDR      r0,[r0,#0]
        0x000023ce:    6d00        .m      LDR      r0,[r0,#0x50]
        0x000023d0:    6020         `      STR      r0,[r4,#0]
        0x000023d2:    48b1        .H      LDR      r0,[pc,#708] ; [0x2698] = 0x20000014
        0x000023d4:    6800        .h      LDR      r0,[r0,#0]
        0x000023d6:    3040        @0      ADDS     r0,r0,#0x40
        0x000023d8:    7d00        .}      LDRB     r0,[r0,#0x14]
        0x000023da:    2802        .(      CMP      r0,#2
        0x000023dc:    d001        ..      BEQ      0x23e2 ; xTaskNotifyWait + 100
        0x000023de:    2600        .&      MOVS     r6,#0
        0x000023e0:    e008        ..      B        0x23f4 ; xTaskNotifyWait + 118
        0x000023e2:    49ad        .I      LDR      r1,[pc,#692] ; [0x2698] = 0x20000014
        0x000023e4:    6809        .h      LDR      r1,[r1,#0]
        0x000023e6:    4608        .F      MOV      r0,r1
        0x000023e8:    3050        P0      ADDS     r0,r0,#0x50
        0x000023ea:    6d0a        .m      LDR      r2,[r1,#0x50]
        0x000023ec:    9902        ..      LDR      r1,[sp,#8]
        0x000023ee:    438a        .C      BICS     r2,r2,r1
        0x000023f0:    6002        .`      STR      r2,[r0,#0]
        0x000023f2:    2601        .&      MOVS     r6,#1
        0x000023f4:    2100        .!      MOVS     r1,#0
        0x000023f6:    48a8        .H      LDR      r0,[pc,#672] ; [0x2698] = 0x20000014
        0x000023f8:    6800        .h      LDR      r0,[r0,#0]
        0x000023fa:    3040        @0      ADDS     r0,r0,#0x40
        0x000023fc:    7501        .u      STRB     r1,[r0,#0x14]
        0x000023fe:    f001fb9d    ....    BL       vPortExitCritical ; 0x3b3c
        0x00002402:    4630        0F      MOV      r0,r6
        0x00002404:    b005        ..      ADD      sp,sp,#0x14
        0x00002406:    bdf0        ..      POP      {r4-r7,pc}
    xTaskGenericNotify
        0x00002408:    b5ff        ..      PUSH     {r0-r7,lr}
        0x0000240a:    b083        ..      SUB      sp,sp,#0xc
        0x0000240c:    4607        .F      MOV      r7,r0
        0x0000240e:    460d        .F      MOV      r5,r1
        0x00002410:    4616        .F      MOV      r6,r2
        0x00002412:    2001        .       MOVS     r0,#1
        0x00002414:    9002        ..      STR      r0,[sp,#8]
        0x00002416:    2f00        ./      CMP      r7,#0
        0x00002418:    d102        ..      BNE      0x2420 ; xTaskGenericNotify + 24
        0x0000241a:    b672        r.      CPSID    i
        0x0000241c:    bf00        ..      NOP      
        0x0000241e:    e7fe        ..      B        0x241e ; xTaskGenericNotify + 22
        0x00002420:    463c        <F      MOV      r4,r7
        0x00002422:    f001fb80    ....    BL       vPortEnterCritical ; 0x3b26
        0x00002426:    9806        ..      LDR      r0,[sp,#0x18]
        0x00002428:    2800        .(      CMP      r0,#0
        0x0000242a:    d002        ..      BEQ      0x2432 ; xTaskGenericNotify + 42
        0x0000242c:    6d21        !m      LDR      r1,[r4,#0x50]
        0x0000242e:    9806        ..      LDR      r0,[sp,#0x18]
        0x00002430:    6001        .`      STR      r1,[r0,#0]
        0x00002432:    2054        T       MOVS     r0,#0x54
        0x00002434:    5d00        .]      LDRB     r0,[r0,r4]
        0x00002436:    9001        ..      STR      r0,[sp,#4]
        0x00002438:    2102        .!      MOVS     r1,#2
        0x0000243a:    2054        T       MOVS     r0,#0x54
        0x0000243c:    5501        .U      STRB     r1,[r0,r4]
        0x0000243e:    0033        3.      MOVS     r3,r6
        0x00002440:    f001fcee    ....    BL       __ARM_common_switch8 ; 0x3e20
    $d
        0x00002444:    08041605    ....    DCD    134485509
        0x00002448:    00170e0c    ....    DCD    1510924
    $t
        0x0000244c:    6d20         m      LDR      r0,[r4,#0x50]
        0x0000244e:    4328        (C      ORRS     r0,r0,r5
        0x00002450:    6520         e      STR      r0,[r4,#0x50]
        0x00002452:    e01b        ..      B        0x248c ; xTaskGenericNotify + 132
        0x00002454:    6d20         m      LDR      r0,[r4,#0x50]
        0x00002456:    1c40        @.      ADDS     r0,r0,#1
        0x00002458:    6520         e      STR      r0,[r4,#0x50]
        0x0000245a:    e017        ..      B        0x248c ; xTaskGenericNotify + 132
        0x0000245c:    6525        %e      STR      r5,[r4,#0x50]
        0x0000245e:    e015        ..      B        0x248c ; xTaskGenericNotify + 132
        0x00002460:    9801        ..      LDR      r0,[sp,#4]
        0x00002462:    2802        .(      CMP      r0,#2
        0x00002464:    d001        ..      BEQ      0x246a ; xTaskGenericNotify + 98
        0x00002466:    6525        %e      STR      r5,[r4,#0x50]
        0x00002468:    e001        ..      B        0x246e ; xTaskGenericNotify + 102
        0x0000246a:    2000        .       MOVS     r0,#0
        0x0000246c:    9002        ..      STR      r0,[sp,#8]
        0x0000246e:    e00d        ..      B        0x248c ; xTaskGenericNotify + 132
        0x00002470:    e00c        ..      B        0x248c ; xTaskGenericNotify + 132
        0x00002472:    6d20         m      LDR      r0,[r4,#0x50]
        0x00002474:    1c40        @.      ADDS     r0,r0,#1
        0x00002476:    2800        .(      CMP      r0,#0
        0x00002478:    d101        ..      BNE      0x247e ; xTaskGenericNotify + 118
        0x0000247a:    2001        .       MOVS     r0,#1
        0x0000247c:    e000        ..      B        0x2480 ; xTaskGenericNotify + 120
        0x0000247e:    2000        .       MOVS     r0,#0
        0x00002480:    2800        .(      CMP      r0,#0
        0x00002482:    d102        ..      BNE      0x248a ; xTaskGenericNotify + 130
        0x00002484:    b672        r.      CPSID    i
        0x00002486:    bf00        ..      NOP      
        0x00002488:    e7fe        ..      B        0x2488 ; xTaskGenericNotify + 128
        0x0000248a:    bf00        ..      NOP      
        0x0000248c:    bf00        ..      NOP      
        0x0000248e:    9801        ..      LDR      r0,[sp,#4]
        0x00002490:    2801        .(      CMP      r0,#1
        0x00002492:    d125        %.      BNE      0x24e0 ; xTaskGenericNotify + 216
        0x00002494:    1d20         .      ADDS     r0,r4,#4
        0x00002496:    f7fefe6e    ..n.    BL       uxListRemove ; 0x1176
        0x0000249a:    497e        ~I      LDR      r1,[pc,#504] ; [0x2694] = 0x2000002c
        0x0000249c:    6ae0        .j      LDR      r0,[r4,#0x2c]
        0x0000249e:    6809        .h      LDR      r1,[r1,#0]
        0x000024a0:    4288        .B      CMP      r0,r1
        0x000024a2:    d902        ..      BLS      0x24aa ; xTaskGenericNotify + 162
        0x000024a4:    497b        {I      LDR      r1,[pc,#492] ; [0x2694] = 0x2000002c
        0x000024a6:    6ae0        .j      LDR      r0,[r4,#0x2c]
        0x000024a8:    6008        .`      STR      r0,[r1,#0]
        0x000024aa:    2214        ."      MOVS     r2,#0x14
        0x000024ac:    6ae1        .j      LDR      r1,[r4,#0x2c]
        0x000024ae:    4351        QC      MULS     r1,r2,r1
        0x000024b0:    4a77        wJ      LDR      r2,[pc,#476] ; [0x2690] = 0x20000080
        0x000024b2:    1888        ..      ADDS     r0,r1,r2
        0x000024b4:    1d21        !.      ADDS     r1,r4,#4
        0x000024b6:    f7fefe37    ..7.    BL       vListInsertEnd ; 0x1128
        0x000024ba:    6aa0        .j      LDR      r0,[r4,#0x28]
        0x000024bc:    2800        .(      CMP      r0,#0
        0x000024be:    d101        ..      BNE      0x24c4 ; xTaskGenericNotify + 188
        0x000024c0:    2001        .       MOVS     r0,#1
        0x000024c2:    e000        ..      B        0x24c6 ; xTaskGenericNotify + 190
        0x000024c4:    2000        .       MOVS     r0,#0
        0x000024c6:    2800        .(      CMP      r0,#0
        0x000024c8:    d102        ..      BNE      0x24d0 ; xTaskGenericNotify + 200
        0x000024ca:    b672        r.      CPSID    i
        0x000024cc:    bf00        ..      NOP      
        0x000024ce:    e7fe        ..      B        0x24ce ; xTaskGenericNotify + 198
        0x000024d0:    4971        qI      LDR      r1,[pc,#452] ; [0x2698] = 0x20000014
        0x000024d2:    6ae0        .j      LDR      r0,[r4,#0x2c]
        0x000024d4:    6809        .h      LDR      r1,[r1,#0]
        0x000024d6:    6ac9        .j      LDR      r1,[r1,#0x2c]
        0x000024d8:    4288        .B      CMP      r0,r1
        0x000024da:    d901        ..      BLS      0x24e0 ; xTaskGenericNotify + 216
        0x000024dc:    f001fb1a    ....    BL       vPortYield ; 0x3b14
        0x000024e0:    f001fb2c    ..,.    BL       vPortExitCritical ; 0x3b3c
        0x000024e4:    9802        ..      LDR      r0,[sp,#8]
        0x000024e6:    b007        ..      ADD      sp,sp,#0x1c
        0x000024e8:    bdf0        ..      POP      {r4-r7,pc}
    xTaskGenericNotifyFromISR
        0x000024ea:    b5ff        ..      PUSH     {r0-r7,lr}
        0x000024ec:    b083        ..      SUB      sp,sp,#0xc
        0x000024ee:    4607        .F      MOV      r7,r0
        0x000024f0:    460d        .F      MOV      r5,r1
        0x000024f2:    4616        .F      MOV      r6,r2
        0x000024f4:    2001        .       MOVS     r0,#1
        0x000024f6:    9001        ..      STR      r0,[sp,#4]
        0x000024f8:    2f00        ./      CMP      r7,#0
        0x000024fa:    d102        ..      BNE      0x2502 ; xTaskGenericNotifyFromISR + 24
        0x000024fc:    b672        r.      CPSID    i
        0x000024fe:    bf00        ..      NOP      
        0x00002500:    e7fe        ..      B        0x2500 ; xTaskGenericNotifyFromISR + 22
        0x00002502:    463c        <F      MOV      r4,r7
        0x00002504:    f7fdfe08    ....    BL       ulSetInterruptMaskFromISR ; 0x118
        0x00002508:    9000        ..      STR      r0,[sp,#0]
        0x0000250a:    9806        ..      LDR      r0,[sp,#0x18]
        0x0000250c:    2800        .(      CMP      r0,#0
        0x0000250e:    d002        ..      BEQ      0x2516 ; xTaskGenericNotifyFromISR + 44
        0x00002510:    6d21        !m      LDR      r1,[r4,#0x50]
        0x00002512:    9806        ..      LDR      r0,[sp,#0x18]
        0x00002514:    6001        .`      STR      r1,[r0,#0]
        0x00002516:    2054        T       MOVS     r0,#0x54
        0x00002518:    5d00        .]      LDRB     r0,[r0,r4]
        0x0000251a:    9002        ..      STR      r0,[sp,#8]
        0x0000251c:    2102        .!      MOVS     r1,#2
        0x0000251e:    2054        T       MOVS     r0,#0x54
        0x00002520:    5501        .U      STRB     r1,[r0,r4]
        0x00002522:    0033        3.      MOVS     r3,r6
        0x00002524:    f001fc7c    ..|.    BL       __ARM_common_switch8 ; 0x3e20
    $d
        0x00002528:    08041605    ....    DCD    134485509
        0x0000252c:    00170e0c    ....    DCD    1510924
    $t
        0x00002530:    6d20         m      LDR      r0,[r4,#0x50]
        0x00002532:    4328        (C      ORRS     r0,r0,r5
        0x00002534:    6520         e      STR      r0,[r4,#0x50]
        0x00002536:    e01b        ..      B        0x2570 ; xTaskGenericNotifyFromISR + 134
        0x00002538:    6d20         m      LDR      r0,[r4,#0x50]
        0x0000253a:    1c40        @.      ADDS     r0,r0,#1
        0x0000253c:    6520         e      STR      r0,[r4,#0x50]
        0x0000253e:    e017        ..      B        0x2570 ; xTaskGenericNotifyFromISR + 134
        0x00002540:    6525        %e      STR      r5,[r4,#0x50]
        0x00002542:    e015        ..      B        0x2570 ; xTaskGenericNotifyFromISR + 134
        0x00002544:    9802        ..      LDR      r0,[sp,#8]
        0x00002546:    2802        .(      CMP      r0,#2
        0x00002548:    d001        ..      BEQ      0x254e ; xTaskGenericNotifyFromISR + 100
        0x0000254a:    6525        %e      STR      r5,[r4,#0x50]
        0x0000254c:    e001        ..      B        0x2552 ; xTaskGenericNotifyFromISR + 104
        0x0000254e:    2000        .       MOVS     r0,#0
        0x00002550:    9001        ..      STR      r0,[sp,#4]
        0x00002552:    e00d        ..      B        0x2570 ; xTaskGenericNotifyFromISR + 134
        0x00002554:    e00c        ..      B        0x2570 ; xTaskGenericNotifyFromISR + 134
        0x00002556:    6d20         m      LDR      r0,[r4,#0x50]
        0x00002558:    1c40        @.      ADDS     r0,r0,#1
        0x0000255a:    2800        .(      CMP      r0,#0
        0x0000255c:    d101        ..      BNE      0x2562 ; xTaskGenericNotifyFromISR + 120
        0x0000255e:    2001        .       MOVS     r0,#1
        0x00002560:    e000        ..      B        0x2564 ; xTaskGenericNotifyFromISR + 122
        0x00002562:    2000        .       MOVS     r0,#0
        0x00002564:    2800        .(      CMP      r0,#0
        0x00002566:    d102        ..      BNE      0x256e ; xTaskGenericNotifyFromISR + 132
        0x00002568:    b672        r.      CPSID    i
        0x0000256a:    bf00        ..      NOP      
        0x0000256c:    e7fe        ..      B        0x256c ; xTaskGenericNotifyFromISR + 130
        0x0000256e:    bf00        ..      NOP      
        0x00002570:    bf00        ..      NOP      
        0x00002572:    9802        ..      LDR      r0,[sp,#8]
        0x00002574:    2801        .(      CMP      r0,#1
        0x00002576:    d136        6.      BNE      0x25e6 ; xTaskGenericNotifyFromISR + 252
        0x00002578:    6aa0        .j      LDR      r0,[r4,#0x28]
        0x0000257a:    2800        .(      CMP      r0,#0
        0x0000257c:    d101        ..      BNE      0x2582 ; xTaskGenericNotifyFromISR + 152
        0x0000257e:    2001        .       MOVS     r0,#1
        0x00002580:    e000        ..      B        0x2584 ; xTaskGenericNotifyFromISR + 154
        0x00002582:    2000        .       MOVS     r0,#0
        0x00002584:    2800        .(      CMP      r0,#0
        0x00002586:    d102        ..      BNE      0x258e ; xTaskGenericNotifyFromISR + 164
        0x00002588:    b672        r.      CPSID    i
        0x0000258a:    bf00        ..      NOP      
        0x0000258c:    e7fe        ..      B        0x258c ; xTaskGenericNotifyFromISR + 162
        0x0000258e:    4843        CH      LDR      r0,[pc,#268] ; [0x269c] = 0x2000004c
        0x00002590:    6800        .h      LDR      r0,[r0,#0]
        0x00002592:    2800        .(      CMP      r0,#0
        0x00002594:    d113        ..      BNE      0x25be ; xTaskGenericNotifyFromISR + 212
        0x00002596:    1d20         .      ADDS     r0,r4,#4
        0x00002598:    f7fefded    ....    BL       uxListRemove ; 0x1176
        0x0000259c:    493d        =I      LDR      r1,[pc,#244] ; [0x2694] = 0x2000002c
        0x0000259e:    6ae0        .j      LDR      r0,[r4,#0x2c]
        0x000025a0:    6809        .h      LDR      r1,[r1,#0]
        0x000025a2:    4288        .B      CMP      r0,r1
        0x000025a4:    d902        ..      BLS      0x25ac ; xTaskGenericNotifyFromISR + 194
        0x000025a6:    493b        ;I      LDR      r1,[pc,#236] ; [0x2694] = 0x2000002c
        0x000025a8:    6ae0        .j      LDR      r0,[r4,#0x2c]
        0x000025aa:    6008        .`      STR      r0,[r1,#0]
        0x000025ac:    2214        ."      MOVS     r2,#0x14
        0x000025ae:    6ae1        .j      LDR      r1,[r4,#0x2c]
        0x000025b0:    4351        QC      MULS     r1,r2,r1
        0x000025b2:    4a37        7J      LDR      r2,[pc,#220] ; [0x2690] = 0x20000080
        0x000025b4:    1888        ..      ADDS     r0,r1,r2
        0x000025b6:    1d21        !.      ADDS     r1,r4,#4
        0x000025b8:    f7fefdb6    ....    BL       vListInsertEnd ; 0x1128
        0x000025bc:    e004        ..      B        0x25c8 ; xTaskGenericNotifyFromISR + 222
        0x000025be:    4621        !F      MOV      r1,r4
        0x000025c0:    3118        .1      ADDS     r1,r1,#0x18
        0x000025c2:    4837        7H      LDR      r0,[pc,#220] ; [0x26a0] = 0x2000010c
        0x000025c4:    f7fefdb0    ....    BL       vListInsertEnd ; 0x1128
        0x000025c8:    4933        3I      LDR      r1,[pc,#204] ; [0x2698] = 0x20000014
        0x000025ca:    6ae0        .j      LDR      r0,[r4,#0x2c]
        0x000025cc:    6809        .h      LDR      r1,[r1,#0]
        0x000025ce:    6ac9        .j      LDR      r1,[r1,#0x2c]
        0x000025d0:    4288        .B      CMP      r0,r1
        0x000025d2:    d908        ..      BLS      0x25e6 ; xTaskGenericNotifyFromISR + 252
        0x000025d4:    980c        ..      LDR      r0,[sp,#0x30]
        0x000025d6:    2800        .(      CMP      r0,#0
        0x000025d8:    d002        ..      BEQ      0x25e0 ; xTaskGenericNotifyFromISR + 246
        0x000025da:    2101        .!      MOVS     r1,#1
        0x000025dc:    980c        ..      LDR      r0,[sp,#0x30]
        0x000025de:    6001        .`      STR      r1,[r0,#0]
        0x000025e0:    2001        .       MOVS     r0,#1
        0x000025e2:    4930        0I      LDR      r1,[pc,#192] ; [0x26a4] = 0x20000038
        0x000025e4:    6008        .`      STR      r0,[r1,#0]
        0x000025e6:    9800        ..      LDR      r0,[sp,#0]
        0x000025e8:    f7fdfd9a    ....    BL       vClearInterruptMaskFromISR ; 0x120
        0x000025ec:    9801        ..      LDR      r0,[sp,#4]
        0x000025ee:    b007        ..      ADD      sp,sp,#0x1c
        0x000025f0:    bdf0        ..      POP      {r4-r7,pc}
    vTaskNotifyGiveFromISR
        0x000025f2:    b5f8        ..      PUSH     {r3-r7,lr}
        0x000025f4:    4605        .F      MOV      r5,r0
        0x000025f6:    460e        .F      MOV      r6,r1
        0x000025f8:    2d00        .-      CMP      r5,#0
        0x000025fa:    d102        ..      BNE      0x2602 ; vTaskNotifyGiveFromISR + 16
        0x000025fc:    b672        r.      CPSID    i
        0x000025fe:    bf00        ..      NOP      
        0x00002600:    e7fe        ..      B        0x2600 ; vTaskNotifyGiveFromISR + 14
        0x00002602:    462c        ,F      MOV      r4,r5
        0x00002604:    f7fdfd88    ....    BL       ulSetInterruptMaskFromISR ; 0x118
        0x00002608:    9000        ..      STR      r0,[sp,#0]
        0x0000260a:    2054        T       MOVS     r0,#0x54
        0x0000260c:    5d07        .]      LDRB     r7,[r0,r4]
        0x0000260e:    2102        .!      MOVS     r1,#2
        0x00002610:    5501        .U      STRB     r1,[r0,r4]
        0x00002612:    6d20         m      LDR      r0,[r4,#0x50]
        0x00002614:    1c40        @.      ADDS     r0,r0,#1
        0x00002616:    6520         e      STR      r0,[r4,#0x50]
        0x00002618:    2f01        ./      CMP      r7,#1
        0x0000261a:    d134        4.      BNE      0x2686 ; vTaskNotifyGiveFromISR + 148
        0x0000261c:    6aa0        .j      LDR      r0,[r4,#0x28]
        0x0000261e:    2800        .(      CMP      r0,#0
        0x00002620:    d101        ..      BNE      0x2626 ; vTaskNotifyGiveFromISR + 52
        0x00002622:    2001        .       MOVS     r0,#1
        0x00002624:    e000        ..      B        0x2628 ; vTaskNotifyGiveFromISR + 54
        0x00002626:    2000        .       MOVS     r0,#0
        0x00002628:    2800        .(      CMP      r0,#0
        0x0000262a:    d102        ..      BNE      0x2632 ; vTaskNotifyGiveFromISR + 64
        0x0000262c:    b672        r.      CPSID    i
        0x0000262e:    bf00        ..      NOP      
        0x00002630:    e7fe        ..      B        0x2630 ; vTaskNotifyGiveFromISR + 62
        0x00002632:    481a        .H      LDR      r0,[pc,#104] ; [0x269c] = 0x2000004c
        0x00002634:    6800        .h      LDR      r0,[r0,#0]
        0x00002636:    2800        .(      CMP      r0,#0
        0x00002638:    d113        ..      BNE      0x2662 ; vTaskNotifyGiveFromISR + 112
        0x0000263a:    1d20         .      ADDS     r0,r4,#4
        0x0000263c:    f7fefd9b    ....    BL       uxListRemove ; 0x1176
        0x00002640:    4914        .I      LDR      r1,[pc,#80] ; [0x2694] = 0x2000002c
        0x00002642:    6ae0        .j      LDR      r0,[r4,#0x2c]
        0x00002644:    6809        .h      LDR      r1,[r1,#0]
        0x00002646:    4288        .B      CMP      r0,r1
        0x00002648:    d902        ..      BLS      0x2650 ; vTaskNotifyGiveFromISR + 94
        0x0000264a:    4912        .I      LDR      r1,[pc,#72] ; [0x2694] = 0x2000002c
        0x0000264c:    6ae0        .j      LDR      r0,[r4,#0x2c]
        0x0000264e:    6008        .`      STR      r0,[r1,#0]
        0x00002650:    2214        ."      MOVS     r2,#0x14
        0x00002652:    6ae1        .j      LDR      r1,[r4,#0x2c]
        0x00002654:    4351        QC      MULS     r1,r2,r1
        0x00002656:    4a0e        .J      LDR      r2,[pc,#56] ; [0x2690] = 0x20000080
        0x00002658:    1888        ..      ADDS     r0,r1,r2
        0x0000265a:    1d21        !.      ADDS     r1,r4,#4
        0x0000265c:    f7fefd64    ..d.    BL       vListInsertEnd ; 0x1128
        0x00002660:    e004        ..      B        0x266c ; vTaskNotifyGiveFromISR + 122
        0x00002662:    4621        !F      MOV      r1,r4
        0x00002664:    3118        .1      ADDS     r1,r1,#0x18
        0x00002666:    480e        .H      LDR      r0,[pc,#56] ; [0x26a0] = 0x2000010c
        0x00002668:    f7fefd5e    ..^.    BL       vListInsertEnd ; 0x1128
        0x0000266c:    490a        .I      LDR      r1,[pc,#40] ; [0x2698] = 0x20000014
        0x0000266e:    6ae0        .j      LDR      r0,[r4,#0x2c]
        0x00002670:    6809        .h      LDR      r1,[r1,#0]
        0x00002672:    6ac9        .j      LDR      r1,[r1,#0x2c]
        0x00002674:    4288        .B      CMP      r0,r1
        0x00002676:    d906        ..      BLS      0x2686 ; vTaskNotifyGiveFromISR + 148
        0x00002678:    2e00        ..      CMP      r6,#0
        0x0000267a:    d001        ..      BEQ      0x2680 ; vTaskNotifyGiveFromISR + 142
        0x0000267c:    2001        .       MOVS     r0,#1
        0x0000267e:    6030        0`      STR      r0,[r6,#0]
        0x00002680:    2001        .       MOVS     r0,#1
        0x00002682:    4908        .I      LDR      r1,[pc,#32] ; [0x26a4] = 0x20000038
        0x00002684:    6008        .`      STR      r0,[r1,#0]
        0x00002686:    9800        ..      LDR      r0,[sp,#0]
        0x00002688:    f7fdfd4a    ..J.    BL       vClearInterruptMaskFromISR ; 0x120
        0x0000268c:    bdf8        ..      POP      {r3-r7,pc}
    $d
        0x0000268e:    0000        ..      DCW    0
        0x00002690:    20000080    ...     DCD    536871040
        0x00002694:    2000002c    ,..     DCD    536870956
        0x00002698:    20000014    ...     DCD    536870932
        0x0000269c:    2000004c    L..     DCD    536870988
        0x000026a0:    2000010c    ...     DCD    536871180
        0x000026a4:    20000038    8..     DCD    536870968
    $t
    xTaskNotifyStateClear
        0x000026a8:    b570        p.      PUSH     {r4-r6,lr}
        0x000026aa:    4605        .F      MOV      r5,r0
        0x000026ac:    2d00        .-      CMP      r5,#0
        0x000026ae:    d102        ..      BNE      0x26b6 ; xTaskNotifyStateClear + 14
        0x000026b0:    480a        .H      LDR      r0,[pc,#40] ; [0x26dc] = 0x20000014
        0x000026b2:    6800        .h      LDR      r0,[r0,#0]
        0x000026b4:    e000        ..      B        0x26b8 ; xTaskNotifyStateClear + 16
        0x000026b6:    4628        (F      MOV      r0,r5
        0x000026b8:    4606        .F      MOV      r6,r0
        0x000026ba:    f001fa34    ..4.    BL       vPortEnterCritical ; 0x3b26
        0x000026be:    2054        T       MOVS     r0,#0x54
        0x000026c0:    5d80        .]      LDRB     r0,[r0,r6]
        0x000026c2:    2802        .(      CMP      r0,#2
        0x000026c4:    d104        ..      BNE      0x26d0 ; xTaskNotifyStateClear + 40
        0x000026c6:    2100        .!      MOVS     r1,#0
        0x000026c8:    2054        T       MOVS     r0,#0x54
        0x000026ca:    5581        .U      STRB     r1,[r0,r6]
        0x000026cc:    2401        .$      MOVS     r4,#1
        0x000026ce:    e000        ..      B        0x26d2 ; xTaskNotifyStateClear + 42
        0x000026d0:    2400        .$      MOVS     r4,#0
        0x000026d2:    f001fa33    ..3.    BL       vPortExitCritical ; 0x3b3c
        0x000026d6:    4620         F      MOV      r0,r4
        0x000026d8:    bd70        p.      POP      {r4-r6,pc}
    $d
        0x000026da:    0000        ..      DCW    0
        0x000026dc:    20000014    ...     DCD    536870932
    $t
    .text
    xQueueGenericReset
        0x000026e0:    b570        p.      PUSH     {r4-r6,lr}
        0x000026e2:    4605        .F      MOV      r5,r0
        0x000026e4:    460e        .F      MOV      r6,r1
        0x000026e6:    462c        ,F      MOV      r4,r5
        0x000026e8:    2c00        .,      CMP      r4,#0
        0x000026ea:    d102        ..      BNE      0x26f2 ; xQueueGenericReset + 18
        0x000026ec:    b672        r.      CPSID    i
        0x000026ee:    bf00        ..      NOP      
        0x000026f0:    e7fe        ..      B        0x26f0 ; xQueueGenericReset + 16
        0x000026f2:    f001fa18    ....    BL       vPortEnterCritical ; 0x3b26
        0x000026f6:    6c21        !l      LDR      r1,[r4,#0x40]
        0x000026f8:    6be0        .k      LDR      r0,[r4,#0x3c]
        0x000026fa:    4348        HC      MULS     r0,r1,r0
        0x000026fc:    6821        !h      LDR      r1,[r4,#0]
        0x000026fe:    1840        @.      ADDS     r0,r0,r1
        0x00002700:    60a0        .`      STR      r0,[r4,#8]
        0x00002702:    2000        .       MOVS     r0,#0
        0x00002704:    63a0        .c      STR      r0,[r4,#0x38]
        0x00002706:    6820         h      LDR      r0,[r4,#0]
        0x00002708:    6060        ``      STR      r0,[r4,#4]
        0x0000270a:    6be0        .k      LDR      r0,[r4,#0x3c]
        0x0000270c:    1e40        @.      SUBS     r0,r0,#1
        0x0000270e:    6c21        !l      LDR      r1,[r4,#0x40]
        0x00002710:    4348        HC      MULS     r0,r1,r0
        0x00002712:    6821        !h      LDR      r1,[r4,#0]
        0x00002714:    1841        A.      ADDS     r1,r0,r1
        0x00002716:    60e1        .`      STR      r1,[r4,#0xc]
        0x00002718:    2100        .!      MOVS     r1,#0
        0x0000271a:    43c9        .C      MVNS     r1,r1
        0x0000271c:    2044        D       MOVS     r0,#0x44
        0x0000271e:    5501        .U      STRB     r1,[r0,r4]
        0x00002720:    2045        E       MOVS     r0,#0x45
        0x00002722:    5501        .U      STRB     r1,[r0,r4]
        0x00002724:    2e00        ..      CMP      r6,#0
        0x00002726:    d110        ..      BNE      0x274a ; xQueueGenericReset + 106
        0x00002728:    6920         i      LDR      r0,[r4,#0x10]
        0x0000272a:    2800        .(      CMP      r0,#0
        0x0000272c:    d101        ..      BNE      0x2732 ; xQueueGenericReset + 82
        0x0000272e:    2001        .       MOVS     r0,#1
        0x00002730:    e000        ..      B        0x2734 ; xQueueGenericReset + 84
        0x00002732:    2000        .       MOVS     r0,#0
        0x00002734:    2800        .(      CMP      r0,#0
        0x00002736:    d110        ..      BNE      0x275a ; xQueueGenericReset + 122
        0x00002738:    4620         F      MOV      r0,r4
        0x0000273a:    3010        .0      ADDS     r0,r0,#0x10
        0x0000273c:    f7fffbfe    ....    BL       xTaskRemoveFromEventList ; 0x1f3c
        0x00002740:    2800        .(      CMP      r0,#0
        0x00002742:    d00a        ..      BEQ      0x275a ; xQueueGenericReset + 122
        0x00002744:    f001f9e6    ....    BL       vPortYield ; 0x3b14
        0x00002748:    e007        ..      B        0x275a ; xQueueGenericReset + 122
        0x0000274a:    4620         F      MOV      r0,r4
        0x0000274c:    3010        .0      ADDS     r0,r0,#0x10
        0x0000274e:    f7fefcdb    ....    BL       vListInitialise ; 0x1108
        0x00002752:    4620         F      MOV      r0,r4
        0x00002754:    3024        $0      ADDS     r0,r0,#0x24
        0x00002756:    f7fefcd7    ....    BL       vListInitialise ; 0x1108
        0x0000275a:    f001f9ef    ....    BL       vPortExitCritical ; 0x3b3c
        0x0000275e:    2001        .       MOVS     r0,#1
        0x00002760:    bd70        p.      POP      {r4-r6,pc}
    prvInitialiseNewQueue
        0x00002762:    b5ff        ..      PUSH     {r0-r7,lr}
        0x00002764:    b081        ..      SUB      sp,sp,#4
        0x00002766:    4606        .F      MOV      r6,r0
        0x00002768:    460d        .F      MOV      r5,r1
        0x0000276a:    4617        .F      MOV      r7,r2
        0x0000276c:    9c0a        ..      LDR      r4,[sp,#0x28]
        0x0000276e:    2d00        .-      CMP      r5,#0
        0x00002770:    d101        ..      BNE      0x2776 ; prvInitialiseNewQueue + 20
        0x00002772:    6024        $`      STR      r4,[r4,#0]
        0x00002774:    e000        ..      B        0x2778 ; prvInitialiseNewQueue + 22
        0x00002776:    6027        '`      STR      r7,[r4,#0]
        0x00002778:    63e6        .c      STR      r6,[r4,#0x3c]
        0x0000277a:    6425        %d      STR      r5,[r4,#0x40]
        0x0000277c:    2101        .!      MOVS     r1,#1
        0x0000277e:    4620         F      MOV      r0,r4
        0x00002780:    f7ffffae    ....    BL       xQueueGenericReset ; 0x26e0
        0x00002784:    2150        P!      MOVS     r1,#0x50
        0x00002786:    9804        ..      LDR      r0,[sp,#0x10]
        0x00002788:    5508        .U      STRB     r0,[r1,r4]
        0x0000278a:    2000        .       MOVS     r0,#0
        0x0000278c:    64a0        .d      STR      r0,[r4,#0x48]
        0x0000278e:    b005        ..      ADD      sp,sp,#0x14
        0x00002790:    bdf0        ..      POP      {r4-r7,pc}
    xQueueGenericCreate
        0x00002792:    b5f7        ..      PUSH     {r0-r2,r4-r7,lr}
        0x00002794:    b082        ..      SUB      sp,sp,#8
        0x00002796:    4605        .F      MOV      r5,r0
        0x00002798:    460e        .F      MOV      r6,r1
        0x0000279a:    2d00        .-      CMP      r5,#0
        0x0000279c:    d001        ..      BEQ      0x27a2 ; xQueueGenericCreate + 16
        0x0000279e:    2001        .       MOVS     r0,#1
        0x000027a0:    e000        ..      B        0x27a4 ; xQueueGenericCreate + 18
        0x000027a2:    2000        .       MOVS     r0,#0
        0x000027a4:    2800        .(      CMP      r0,#0
        0x000027a6:    d102        ..      BNE      0x27ae ; xQueueGenericCreate + 28
        0x000027a8:    b672        r.      CPSID    i
        0x000027aa:    bf00        ..      NOP      
        0x000027ac:    e7fe        ..      B        0x27ac ; xQueueGenericCreate + 26
        0x000027ae:    2e00        ..      CMP      r6,#0
        0x000027b0:    d101        ..      BNE      0x27b6 ; xQueueGenericCreate + 36
        0x000027b2:    2700        .'      MOVS     r7,#0
        0x000027b4:    e001        ..      B        0x27ba ; xQueueGenericCreate + 40
        0x000027b6:    462f        /F      MOV      r7,r5
        0x000027b8:    4377        wC      MULS     r7,r6,r7
        0x000027ba:    4638        8F      MOV      r0,r7
        0x000027bc:    3054        T0      ADDS     r0,r0,#0x54
        0x000027be:    f001f9fc    ....    BL       pvPortMalloc ; 0x3bba
        0x000027c2:    4604        .F      MOV      r4,r0
        0x000027c4:    2c00        .,      CMP      r4,#0
        0x000027c6:    d00b        ..      BEQ      0x27e0 ; xQueueGenericCreate + 78
        0x000027c8:    9401        ..      STR      r4,[sp,#4]
        0x000027ca:    9c01        ..      LDR      r4,[sp,#4]
        0x000027cc:    4620         F      MOV      r0,r4
        0x000027ce:    3054        T0      ADDS     r0,r0,#0x54
        0x000027d0:    9001        ..      STR      r0,[sp,#4]
        0x000027d2:    9400        ..      STR      r4,[sp,#0]
        0x000027d4:    4631        1F      MOV      r1,r6
        0x000027d6:    4628        (F      MOV      r0,r5
        0x000027d8:    9b04        ..      LDR      r3,[sp,#0x10]
        0x000027da:    9a01        ..      LDR      r2,[sp,#4]
        0x000027dc:    f7ffffc1    ....    BL       prvInitialiseNewQueue ; 0x2762
        0x000027e0:    4620         F      MOV      r0,r4
        0x000027e2:    b005        ..      ADD      sp,sp,#0x14
        0x000027e4:    bdf0        ..      POP      {r4-r7,pc}
    prvCopyDataToQueue
        0x000027e6:    b5f8        ..      PUSH     {r3-r7,lr}
        0x000027e8:    4604        .F      MOV      r4,r0
        0x000027ea:    460f        .F      MOV      r7,r1
        0x000027ec:    4615        .F      MOV      r5,r2
        0x000027ee:    2000        .       MOVS     r0,#0
        0x000027f0:    9000        ..      STR      r0,[sp,#0]
        0x000027f2:    6ba6        .k      LDR      r6,[r4,#0x38]
        0x000027f4:    6c20         l      LDR      r0,[r4,#0x40]
        0x000027f6:    2800        .(      CMP      r0,#0
        0x000027f8:    d109        ..      BNE      0x280e ; prvCopyDataToQueue + 40
        0x000027fa:    6820         h      LDR      r0,[r4,#0]
        0x000027fc:    2800        .(      CMP      r0,#0
        0x000027fe:    d12e        ..      BNE      0x285e ; prvCopyDataToQueue + 120
        0x00002800:    68a0        .h      LDR      r0,[r4,#8]
        0x00002802:    f7fffcc7    ....    BL       xTaskPriorityDisinherit ; 0x2194
        0x00002806:    9000        ..      STR      r0,[sp,#0]
        0x00002808:    2000        .       MOVS     r0,#0
        0x0000280a:    60a0        .`      STR      r0,[r4,#8]
        0x0000280c:    e027        '.      B        0x285e ; prvCopyDataToQueue + 120
        0x0000280e:    2d00        .-      CMP      r5,#0
        0x00002810:    d10f        ..      BNE      0x2832 ; prvCopyDataToQueue + 76
        0x00002812:    4639        9F      MOV      r1,r7
        0x00002814:    6c22        "l      LDR      r2,[r4,#0x40]
        0x00002816:    6860        `h      LDR      r0,[r4,#4]
        0x00002818:    f001fa6a    ..j.    BL       __aeabi_memcpy ; 0x3cf0
        0x0000281c:    6c21        !l      LDR      r1,[r4,#0x40]
        0x0000281e:    6860        `h      LDR      r0,[r4,#4]
        0x00002820:    1840        @.      ADDS     r0,r0,r1
        0x00002822:    6060        ``      STR      r0,[r4,#4]
        0x00002824:    68a1        .h      LDR      r1,[r4,#8]
        0x00002826:    6860        `h      LDR      r0,[r4,#4]
        0x00002828:    4288        .B      CMP      r0,r1
        0x0000282a:    d318        ..      BCC      0x285e ; prvCopyDataToQueue + 120
        0x0000282c:    6820         h      LDR      r0,[r4,#0]
        0x0000282e:    6060        ``      STR      r0,[r4,#4]
        0x00002830:    e015        ..      B        0x285e ; prvCopyDataToQueue + 120
        0x00002832:    4639        9F      MOV      r1,r7
        0x00002834:    6c22        "l      LDR      r2,[r4,#0x40]
        0x00002836:    68e0        .h      LDR      r0,[r4,#0xc]
        0x00002838:    f001fa5a    ..Z.    BL       __aeabi_memcpy ; 0x3cf0
        0x0000283c:    6c21        !l      LDR      r1,[r4,#0x40]
        0x0000283e:    68e0        .h      LDR      r0,[r4,#0xc]
        0x00002840:    1a41        A.      SUBS     r1,r0,r1
        0x00002842:    60e1        .`      STR      r1,[r4,#0xc]
        0x00002844:    6821        !h      LDR      r1,[r4,#0]
        0x00002846:    68e0        .h      LDR      r0,[r4,#0xc]
        0x00002848:    4288        .B      CMP      r0,r1
        0x0000284a:    d203        ..      BCS      0x2854 ; prvCopyDataToQueue + 110
        0x0000284c:    6c21        !l      LDR      r1,[r4,#0x40]
        0x0000284e:    68a0        .h      LDR      r0,[r4,#8]
        0x00002850:    1a41        A.      SUBS     r1,r0,r1
        0x00002852:    60e1        .`      STR      r1,[r4,#0xc]
        0x00002854:    2d02        .-      CMP      r5,#2
        0x00002856:    d102        ..      BNE      0x285e ; prvCopyDataToQueue + 120
        0x00002858:    2e00        ..      CMP      r6,#0
        0x0000285a:    d000        ..      BEQ      0x285e ; prvCopyDataToQueue + 120
        0x0000285c:    1e76        v.      SUBS     r6,r6,#1
        0x0000285e:    1c70        p.      ADDS     r0,r6,#1
        0x00002860:    63a0        .c      STR      r0,[r4,#0x38]
        0x00002862:    9800        ..      LDR      r0,[sp,#0]
        0x00002864:    bdf8        ..      POP      {r3-r7,pc}
    prvNotifyQueueSetContainer
        0x00002866:    b5f3        ..      PUSH     {r0,r1,r4-r7,lr}
        0x00002868:    b081        ..      SUB      sp,sp,#4
        0x0000286a:    460d        .F      MOV      r5,r1
        0x0000286c:    9801        ..      LDR      r0,[sp,#4]
        0x0000286e:    6c84        .l      LDR      r4,[r0,#0x48]
        0x00002870:    2700        .'      MOVS     r7,#0
        0x00002872:    2c00        .,      CMP      r4,#0
        0x00002874:    d102        ..      BNE      0x287c ; prvNotifyQueueSetContainer + 22
        0x00002876:    b672        r.      CPSID    i
        0x00002878:    bf00        ..      NOP      
        0x0000287a:    e7fe        ..      B        0x287a ; prvNotifyQueueSetContainer + 20
        0x0000287c:    6ba0        .k      LDR      r0,[r4,#0x38]
        0x0000287e:    6be1        .k      LDR      r1,[r4,#0x3c]
        0x00002880:    4288        .B      CMP      r0,r1
        0x00002882:    d201        ..      BCS      0x2888 ; prvNotifyQueueSetContainer + 34
        0x00002884:    2001        .       MOVS     r0,#1
        0x00002886:    e000        ..      B        0x288a ; prvNotifyQueueSetContainer + 36
        0x00002888:    2000        .       MOVS     r0,#0
        0x0000288a:    2800        .(      CMP      r0,#0
        0x0000288c:    d102        ..      BNE      0x2894 ; prvNotifyQueueSetContainer + 46
        0x0000288e:    b672        r.      CPSID    i
        0x00002890:    bf00        ..      NOP      
        0x00002892:    e7fe        ..      B        0x2892 ; prvNotifyQueueSetContainer + 44
        0x00002894:    6ba0        .k      LDR      r0,[r4,#0x38]
        0x00002896:    6be1        .k      LDR      r1,[r4,#0x3c]
        0x00002898:    4288        .B      CMP      r0,r1
        0x0000289a:    d21f        ..      BCS      0x28dc ; prvNotifyQueueSetContainer + 118
        0x0000289c:    2045        E       MOVS     r0,#0x45
        0x0000289e:    5706        .W      LDRSB    r6,[r0,r4]
        0x000028a0:    462a        *F      MOV      r2,r5
        0x000028a2:    a901        ..      ADD      r1,sp,#4
        0x000028a4:    4620         F      MOV      r0,r4
        0x000028a6:    f7ffff9e    ....    BL       prvCopyDataToQueue ; 0x27e6
        0x000028aa:    4607        .F      MOV      r7,r0
        0x000028ac:    1c70        p.      ADDS     r0,r6,#1
        0x000028ae:    2800        .(      CMP      r0,#0
        0x000028b0:    d10f        ..      BNE      0x28d2 ; prvNotifyQueueSetContainer + 108
        0x000028b2:    6a60        `j      LDR      r0,[r4,#0x24]
        0x000028b4:    2800        .(      CMP      r0,#0
        0x000028b6:    d101        ..      BNE      0x28bc ; prvNotifyQueueSetContainer + 86
        0x000028b8:    2001        .       MOVS     r0,#1
        0x000028ba:    e000        ..      B        0x28be ; prvNotifyQueueSetContainer + 88
        0x000028bc:    2000        .       MOVS     r0,#0
        0x000028be:    2800        .(      CMP      r0,#0
        0x000028c0:    d10b        ..      BNE      0x28da ; prvNotifyQueueSetContainer + 116
        0x000028c2:    4620         F      MOV      r0,r4
        0x000028c4:    3024        $0      ADDS     r0,r0,#0x24
        0x000028c6:    f7fffb39    ..9.    BL       xTaskRemoveFromEventList ; 0x1f3c
        0x000028ca:    2800        .(      CMP      r0,#0
        0x000028cc:    d005        ..      BEQ      0x28da ; prvNotifyQueueSetContainer + 116
        0x000028ce:    2701        .'      MOVS     r7,#1
        0x000028d0:    e003        ..      B        0x28da ; prvNotifyQueueSetContainer + 116
        0x000028d2:    1c70        p.      ADDS     r0,r6,#1
        0x000028d4:    b241        A.      SXTB     r1,r0
        0x000028d6:    2045        E       MOVS     r0,#0x45
        0x000028d8:    5501        .U      STRB     r1,[r0,r4]
        0x000028da:    bf00        ..      NOP      
        0x000028dc:    4638        8F      MOV      r0,r7
        0x000028de:    bdfe        ..      POP      {r1-r7,pc}
    prvUnlockQueue
        0x000028e0:    b570        p.      PUSH     {r4-r6,lr}
        0x000028e2:    4604        .F      MOV      r4,r0
        0x000028e4:    f001f91f    ....    BL       vPortEnterCritical ; 0x3b26
        0x000028e8:    2045        E       MOVS     r0,#0x45
        0x000028ea:    5705        .W      LDRSB    r5,[r0,r4]
        0x000028ec:    e01f        ..      B        0x292e ; prvUnlockQueue + 78
        0x000028ee:    6ca0        .l      LDR      r0,[r4,#0x48]
        0x000028f0:    2800        .(      CMP      r0,#0
        0x000028f2:    d008        ..      BEQ      0x2906 ; prvUnlockQueue + 38
        0x000028f4:    2100        .!      MOVS     r1,#0
        0x000028f6:    4620         F      MOV      r0,r4
        0x000028f8:    f7ffffb5    ....    BL       prvNotifyQueueSetContainer ; 0x2866
        0x000028fc:    2800        .(      CMP      r0,#0
        0x000028fe:    d014        ..      BEQ      0x292a ; prvUnlockQueue + 74
        0x00002900:    f7fffbdb    ....    BL       vTaskMissedYield ; 0x20ba
        0x00002904:    e011        ..      B        0x292a ; prvUnlockQueue + 74
        0x00002906:    6a60        `j      LDR      r0,[r4,#0x24]
        0x00002908:    2800        .(      CMP      r0,#0
        0x0000290a:    d101        ..      BNE      0x2910 ; prvUnlockQueue + 48
        0x0000290c:    2001        .       MOVS     r0,#1
        0x0000290e:    e000        ..      B        0x2912 ; prvUnlockQueue + 50
        0x00002910:    2000        .       MOVS     r0,#0
        0x00002912:    2800        .(      CMP      r0,#0
        0x00002914:    d108        ..      BNE      0x2928 ; prvUnlockQueue + 72
        0x00002916:    4620         F      MOV      r0,r4
        0x00002918:    3024        $0      ADDS     r0,r0,#0x24
        0x0000291a:    f7fffb0f    ....    BL       xTaskRemoveFromEventList ; 0x1f3c
        0x0000291e:    2800        .(      CMP      r0,#0
        0x00002920:    d003        ..      BEQ      0x292a ; prvUnlockQueue + 74
        0x00002922:    f7fffbca    ....    BL       vTaskMissedYield ; 0x20ba
        0x00002926:    e000        ..      B        0x292a ; prvUnlockQueue + 74
        0x00002928:    e003        ..      B        0x2932 ; prvUnlockQueue + 82
        0x0000292a:    1e68        h.      SUBS     r0,r5,#1
        0x0000292c:    b245        E.      SXTB     r5,r0
        0x0000292e:    2d00        .-      CMP      r5,#0
        0x00002930:    dcdd        ..      BGT      0x28ee ; prvUnlockQueue + 14
        0x00002932:    bf00        ..      NOP      
        0x00002934:    2100        .!      MOVS     r1,#0
        0x00002936:    43c9        .C      MVNS     r1,r1
        0x00002938:    2045        E       MOVS     r0,#0x45
        0x0000293a:    5501        .U      STRB     r1,[r0,r4]
        0x0000293c:    f001f8fe    ....    BL       vPortExitCritical ; 0x3b3c
        0x00002940:    f001f8f1    ....    BL       vPortEnterCritical ; 0x3b26
        0x00002944:    2044        D       MOVS     r0,#0x44
        0x00002946:    5705        .W      LDRSB    r5,[r0,r4]
        0x00002948:    e013        ..      B        0x2972 ; prvUnlockQueue + 146
        0x0000294a:    6920         i      LDR      r0,[r4,#0x10]
        0x0000294c:    2800        .(      CMP      r0,#0
        0x0000294e:    d101        ..      BNE      0x2954 ; prvUnlockQueue + 116
        0x00002950:    2001        .       MOVS     r0,#1
        0x00002952:    e000        ..      B        0x2956 ; prvUnlockQueue + 118
        0x00002954:    2000        .       MOVS     r0,#0
        0x00002956:    2800        .(      CMP      r0,#0
        0x00002958:    d10a        ..      BNE      0x2970 ; prvUnlockQueue + 144
        0x0000295a:    4620         F      MOV      r0,r4
        0x0000295c:    3010        .0      ADDS     r0,r0,#0x10
        0x0000295e:    f7fffaed    ....    BL       xTaskRemoveFromEventList ; 0x1f3c
        0x00002962:    2800        .(      CMP      r0,#0
        0x00002964:    d001        ..      BEQ      0x296a ; prvUnlockQueue + 138
        0x00002966:    f7fffba8    ....    BL       vTaskMissedYield ; 0x20ba
        0x0000296a:    1e68        h.      SUBS     r0,r5,#1
        0x0000296c:    b245        E.      SXTB     r5,r0
        0x0000296e:    e000        ..      B        0x2972 ; prvUnlockQueue + 146
        0x00002970:    e001        ..      B        0x2976 ; prvUnlockQueue + 150
        0x00002972:    2d00        .-      CMP      r5,#0
        0x00002974:    dce9        ..      BGT      0x294a ; prvUnlockQueue + 106
        0x00002976:    bf00        ..      NOP      
        0x00002978:    2100        .!      MOVS     r1,#0
        0x0000297a:    43c9        .C      MVNS     r1,r1
        0x0000297c:    2044        D       MOVS     r0,#0x44
        0x0000297e:    5501        .U      STRB     r1,[r0,r4]
        0x00002980:    f001f8dc    ....    BL       vPortExitCritical ; 0x3b3c
        0x00002984:    bd70        p.      POP      {r4-r6,pc}
    prvIsQueueFull
        0x00002986:    b570        p.      PUSH     {r4-r6,lr}
        0x00002988:    4605        .F      MOV      r5,r0
        0x0000298a:    f001f8cc    ....    BL       vPortEnterCritical ; 0x3b26
        0x0000298e:    6ba8        .k      LDR      r0,[r5,#0x38]
        0x00002990:    6be9        .k      LDR      r1,[r5,#0x3c]
        0x00002992:    4288        .B      CMP      r0,r1
        0x00002994:    d101        ..      BNE      0x299a ; prvIsQueueFull + 20
        0x00002996:    2401        .$      MOVS     r4,#1
        0x00002998:    e000        ..      B        0x299c ; prvIsQueueFull + 22
        0x0000299a:    2400        .$      MOVS     r4,#0
        0x0000299c:    f001f8ce    ....    BL       vPortExitCritical ; 0x3b3c
        0x000029a0:    4620         F      MOV      r0,r4
        0x000029a2:    bd70        p.      POP      {r4-r6,pc}
    xQueueGenericSend
        0x000029a4:    b5ff        ..      PUSH     {r0-r7,lr}
        0x000029a6:    b085        ..      SUB      sp,sp,#0x14
        0x000029a8:    4606        .F      MOV      r6,r0
        0x000029aa:    461d        .F      MOV      r5,r3
        0x000029ac:    2000        .       MOVS     r0,#0
        0x000029ae:    9004        ..      STR      r0,[sp,#0x10]
        0x000029b0:    4634        4F      MOV      r4,r6
        0x000029b2:    2c00        .,      CMP      r4,#0
        0x000029b4:    d102        ..      BNE      0x29bc ; xQueueGenericSend + 24
        0x000029b6:    b672        r.      CPSID    i
        0x000029b8:    bf00        ..      NOP      
        0x000029ba:    e7fe        ..      B        0x29ba ; xQueueGenericSend + 22
        0x000029bc:    9806        ..      LDR      r0,[sp,#0x18]
        0x000029be:    2800        .(      CMP      r0,#0
        0x000029c0:    d102        ..      BNE      0x29c8 ; xQueueGenericSend + 36
        0x000029c2:    6c20         l      LDR      r0,[r4,#0x40]
        0x000029c4:    2800        .(      CMP      r0,#0
        0x000029c6:    d101        ..      BNE      0x29cc ; xQueueGenericSend + 40
        0x000029c8:    2001        .       MOVS     r0,#1
        0x000029ca:    e000        ..      B        0x29ce ; xQueueGenericSend + 42
        0x000029cc:    2000        .       MOVS     r0,#0
        0x000029ce:    2800        .(      CMP      r0,#0
        0x000029d0:    d102        ..      BNE      0x29d8 ; xQueueGenericSend + 52
        0x000029d2:    b672        r.      CPSID    i
        0x000029d4:    bf00        ..      NOP      
        0x000029d6:    e7fe        ..      B        0x29d6 ; xQueueGenericSend + 50
        0x000029d8:    2d02        .-      CMP      r5,#2
        0x000029da:    d102        ..      BNE      0x29e2 ; xQueueGenericSend + 62
        0x000029dc:    6be0        .k      LDR      r0,[r4,#0x3c]
        0x000029de:    2801        .(      CMP      r0,#1
        0x000029e0:    d101        ..      BNE      0x29e6 ; xQueueGenericSend + 66
        0x000029e2:    2001        .       MOVS     r0,#1
        0x000029e4:    e000        ..      B        0x29e8 ; xQueueGenericSend + 68
        0x000029e6:    2000        .       MOVS     r0,#0
        0x000029e8:    2800        .(      CMP      r0,#0
        0x000029ea:    d102        ..      BNE      0x29f2 ; xQueueGenericSend + 78
        0x000029ec:    b672        r.      CPSID    i
        0x000029ee:    bf00        ..      NOP      
        0x000029f0:    e7fe        ..      B        0x29f0 ; xQueueGenericSend + 76
        0x000029f2:    f7fffb76    ..v.    BL       xTaskGetSchedulerState ; 0x20e2
        0x000029f6:    2800        .(      CMP      r0,#0
        0x000029f8:    d102        ..      BNE      0x2a00 ; xQueueGenericSend + 92
        0x000029fa:    9807        ..      LDR      r0,[sp,#0x1c]
        0x000029fc:    2800        .(      CMP      r0,#0
        0x000029fe:    d101        ..      BNE      0x2a04 ; xQueueGenericSend + 96
        0x00002a00:    2001        .       MOVS     r0,#1
        0x00002a02:    e000        ..      B        0x2a06 ; xQueueGenericSend + 98
        0x00002a04:    2000        .       MOVS     r0,#0
        0x00002a06:    2800        .(      CMP      r0,#0
        0x00002a08:    d102        ..      BNE      0x2a10 ; xQueueGenericSend + 108
        0x00002a0a:    b672        r.      CPSID    i
        0x00002a0c:    bf00        ..      NOP      
        0x00002a0e:    e7fe        ..      B        0x2a0e ; xQueueGenericSend + 106
        0x00002a10:    bf00        ..      NOP      
        0x00002a12:    f001f888    ....    BL       vPortEnterCritical ; 0x3b26
        0x00002a16:    6ba0        .k      LDR      r0,[r4,#0x38]
        0x00002a18:    6be1        .k      LDR      r1,[r4,#0x3c]
        0x00002a1a:    4288        .B      CMP      r0,r1
        0x00002a1c:    d301        ..      BCC      0x2a22 ; xQueueGenericSend + 126
        0x00002a1e:    2d02        .-      CMP      r5,#2
        0x00002a20:    d132        2.      BNE      0x2a88 ; xQueueGenericSend + 228
        0x00002a22:    6ba0        .k      LDR      r0,[r4,#0x38]
        0x00002a24:    9001        ..      STR      r0,[sp,#4]
        0x00002a26:    462a        *F      MOV      r2,r5
        0x00002a28:    4620         F      MOV      r0,r4
        0x00002a2a:    9906        ..      LDR      r1,[sp,#0x18]
        0x00002a2c:    f7fffedb    ....    BL       prvCopyDataToQueue ; 0x27e6
        0x00002a30:    4607        .F      MOV      r7,r0
        0x00002a32:    6ca0        .l      LDR      r0,[r4,#0x48]
        0x00002a34:    2800        .(      CMP      r0,#0
        0x00002a36:    d00d        ..      BEQ      0x2a54 ; xQueueGenericSend + 176
        0x00002a38:    2d02        .-      CMP      r5,#2
        0x00002a3a:    d102        ..      BNE      0x2a42 ; xQueueGenericSend + 158
        0x00002a3c:    9801        ..      LDR      r0,[sp,#4]
        0x00002a3e:    2800        .(      CMP      r0,#0
        0x00002a40:    d11d        ..      BNE      0x2a7e ; xQueueGenericSend + 218
        0x00002a42:    4629        )F      MOV      r1,r5
        0x00002a44:    4620         F      MOV      r0,r4
        0x00002a46:    f7ffff0e    ....    BL       prvNotifyQueueSetContainer ; 0x2866
        0x00002a4a:    2800        .(      CMP      r0,#0
        0x00002a4c:    d017        ..      BEQ      0x2a7e ; xQueueGenericSend + 218
        0x00002a4e:    f001f861    ..a.    BL       vPortYield ; 0x3b14
        0x00002a52:    e014        ..      B        0x2a7e ; xQueueGenericSend + 218
        0x00002a54:    6a60        `j      LDR      r0,[r4,#0x24]
        0x00002a56:    2800        .(      CMP      r0,#0
        0x00002a58:    d101        ..      BNE      0x2a5e ; xQueueGenericSend + 186
        0x00002a5a:    2001        .       MOVS     r0,#1
        0x00002a5c:    e000        ..      B        0x2a60 ; xQueueGenericSend + 188
        0x00002a5e:    2000        .       MOVS     r0,#0
        0x00002a60:    2800        .(      CMP      r0,#0
        0x00002a62:    d108        ..      BNE      0x2a76 ; xQueueGenericSend + 210
        0x00002a64:    4620         F      MOV      r0,r4
        0x00002a66:    3024        $0      ADDS     r0,r0,#0x24
        0x00002a68:    f7fffa68    ..h.    BL       xTaskRemoveFromEventList ; 0x1f3c
        0x00002a6c:    2800        .(      CMP      r0,#0
        0x00002a6e:    d006        ..      BEQ      0x2a7e ; xQueueGenericSend + 218
        0x00002a70:    f001f850    ..P.    BL       vPortYield ; 0x3b14
        0x00002a74:    e003        ..      B        0x2a7e ; xQueueGenericSend + 218
        0x00002a76:    2f00        ./      CMP      r7,#0
        0x00002a78:    d001        ..      BEQ      0x2a7e ; xQueueGenericSend + 218
        0x00002a7a:    f001f84b    ..K.    BL       vPortYield ; 0x3b14
        0x00002a7e:    f001f85d    ..].    BL       vPortExitCritical ; 0x3b3c
        0x00002a82:    2001        .       MOVS     r0,#1
        0x00002a84:    b009        ..      ADD      sp,sp,#0x24
        0x00002a86:    bdf0        ..      POP      {r4-r7,pc}
        0x00002a88:    9807        ..      LDR      r0,[sp,#0x1c]
        0x00002a8a:    2800        .(      CMP      r0,#0
        0x00002a8c:    d103        ..      BNE      0x2a96 ; xQueueGenericSend + 242
        0x00002a8e:    f001f855    ..U.    BL       vPortExitCritical ; 0x3b3c
        0x00002a92:    2000        .       MOVS     r0,#0
        0x00002a94:    e7f6        ..      B        0x2a84 ; xQueueGenericSend + 224
        0x00002a96:    9804        ..      LDR      r0,[sp,#0x10]
        0x00002a98:    2800        .(      CMP      r0,#0
        0x00002a9a:    d104        ..      BNE      0x2aa6 ; xQueueGenericSend + 258
        0x00002a9c:    a802        ..      ADD      r0,sp,#8
        0x00002a9e:    f7fffad0    ....    BL       vTaskInternalSetTimeOutState ; 0x2042
        0x00002aa2:    2001        .       MOVS     r0,#1
        0x00002aa4:    9004        ..      STR      r0,[sp,#0x10]
        0x00002aa6:    f001f849    ..I.    BL       vPortExitCritical ; 0x3b3c
        0x00002aaa:    f7fefe2a    ..*.    BL       vTaskSuspendAll ; 0x1702
        0x00002aae:    f001f83a    ..:.    BL       vPortEnterCritical ; 0x3b26
        0x00002ab2:    2144        D!      MOVS     r1,#0x44
        0x00002ab4:    5708        .W      LDRSB    r0,[r1,r4]
        0x00002ab6:    1c40        @.      ADDS     r0,r0,#1
        0x00002ab8:    2800        .(      CMP      r0,#0
        0x00002aba:    d102        ..      BNE      0x2ac2 ; xQueueGenericSend + 286
        0x00002abc:    2100        .!      MOVS     r1,#0
        0x00002abe:    2044        D       MOVS     r0,#0x44
        0x00002ac0:    5501        .U      STRB     r1,[r0,r4]
        0x00002ac2:    2145        E!      MOVS     r1,#0x45
        0x00002ac4:    5708        .W      LDRSB    r0,[r1,r4]
        0x00002ac6:    1c40        @.      ADDS     r0,r0,#1
        0x00002ac8:    2800        .(      CMP      r0,#0
        0x00002aca:    d102        ..      BNE      0x2ad2 ; xQueueGenericSend + 302
        0x00002acc:    2100        .!      MOVS     r1,#0
        0x00002ace:    2045        E       MOVS     r0,#0x45
        0x00002ad0:    5501        .U      STRB     r1,[r0,r4]
        0x00002ad2:    f001f833    ..3.    BL       vPortExitCritical ; 0x3b3c
        0x00002ad6:    a907        ..      ADD      r1,sp,#0x1c
        0x00002ad8:    a802        ..      ADD      r0,sp,#8
        0x00002ada:    f7fffab9    ....    BL       xTaskCheckForTimeOut ; 0x2050
        0x00002ade:    2800        .(      CMP      r0,#0
        0x00002ae0:    d119        ..      BNE      0x2b16 ; xQueueGenericSend + 370
        0x00002ae2:    4620         F      MOV      r0,r4
        0x00002ae4:    f7ffff4f    ..O.    BL       prvIsQueueFull ; 0x2986
        0x00002ae8:    2800        .(      CMP      r0,#0
        0x00002aea:    d00e        ..      BEQ      0x2b0a ; xQueueGenericSend + 358
        0x00002aec:    4620         F      MOV      r0,r4
        0x00002aee:    3010        .0      ADDS     r0,r0,#0x10
        0x00002af0:    9907        ..      LDR      r1,[sp,#0x1c]
        0x00002af2:    f7fff9d2    ....    BL       vTaskPlaceOnEventList ; 0x1e9a
        0x00002af6:    4620         F      MOV      r0,r4
        0x00002af8:    f7fffef2    ....    BL       prvUnlockQueue ; 0x28e0
        0x00002afc:    f7fefd40    ..@.    BL       xTaskResumeAll ; 0x1580
        0x00002b00:    2800        .(      CMP      r0,#0
        0x00002b02:    d186        ..      BNE      0x2a12 ; xQueueGenericSend + 110
        0x00002b04:    f001f806    ....    BL       vPortYield ; 0x3b14
        0x00002b08:    e783        ..      B        0x2a12 ; xQueueGenericSend + 110
        0x00002b0a:    4620         F      MOV      r0,r4
        0x00002b0c:    f7fffee8    ....    BL       prvUnlockQueue ; 0x28e0
        0x00002b10:    f7fefd36    ..6.    BL       xTaskResumeAll ; 0x1580
        0x00002b14:    e77d        }.      B        0x2a12 ; xQueueGenericSend + 110
        0x00002b16:    4620         F      MOV      r0,r4
        0x00002b18:    f7fffee2    ....    BL       prvUnlockQueue ; 0x28e0
        0x00002b1c:    f7fefd30    ..0.    BL       xTaskResumeAll ; 0x1580
        0x00002b20:    2000        .       MOVS     r0,#0
        0x00002b22:    e7af        ..      B        0x2a84 ; xQueueGenericSend + 224
    prvInitialiseMutex
        0x00002b24:    b510        ..      PUSH     {r4,lr}
        0x00002b26:    4604        .F      MOV      r4,r0
        0x00002b28:    2c00        .,      CMP      r4,#0
        0x00002b2a:    d00a        ..      BEQ      0x2b42 ; prvInitialiseMutex + 30
        0x00002b2c:    2000        .       MOVS     r0,#0
        0x00002b2e:    60a0        .`      STR      r0,[r4,#8]
        0x00002b30:    6020         `      STR      r0,[r4,#0]
        0x00002b32:    2100        .!      MOVS     r1,#0
        0x00002b34:    60e1        .`      STR      r1,[r4,#0xc]
        0x00002b36:    2300        .#      MOVS     r3,#0
        0x00002b38:    461a        .F      MOV      r2,r3
        0x00002b3a:    4619        .F      MOV      r1,r3
        0x00002b3c:    4620         F      MOV      r0,r4
        0x00002b3e:    f7ffff31    ..1.    BL       xQueueGenericSend ; 0x29a4
        0x00002b42:    bd10        ..      POP      {r4,pc}
    xQueueCreateMutex
        0x00002b44:    b5f8        ..      PUSH     {r3-r7,lr}
        0x00002b46:    4604        .F      MOV      r4,r0
        0x00002b48:    2601        .&      MOVS     r6,#1
        0x00002b4a:    2700        .'      MOVS     r7,#0
        0x00002b4c:    4622        "F      MOV      r2,r4
        0x00002b4e:    2100        .!      MOVS     r1,#0
        0x00002b50:    2001        .       MOVS     r0,#1
        0x00002b52:    f7fffe1e    ....    BL       xQueueGenericCreate ; 0x2792
        0x00002b56:    4605        .F      MOV      r5,r0
        0x00002b58:    4628        (F      MOV      r0,r5
        0x00002b5a:    f7ffffe3    ....    BL       prvInitialiseMutex ; 0x2b24
        0x00002b5e:    4628        (F      MOV      r0,r5
        0x00002b60:    bdf8        ..      POP      {r3-r7,pc}
    xQueueGiveMutexRecursive
        0x00002b62:    b570        p.      PUSH     {r4-r6,lr}
        0x00002b64:    4605        .F      MOV      r5,r0
        0x00002b66:    462c        ,F      MOV      r4,r5
        0x00002b68:    2c00        .,      CMP      r4,#0
        0x00002b6a:    d102        ..      BNE      0x2b72 ; xQueueGiveMutexRecursive + 16
        0x00002b6c:    b672        r.      CPSID    i
        0x00002b6e:    bf00        ..      NOP      
        0x00002b70:    e7fe        ..      B        0x2b70 ; xQueueGiveMutexRecursive + 14
        0x00002b72:    f7fffab3    ....    BL       xTaskGetCurrentTaskHandle ; 0x20dc
        0x00002b76:    68a1        .h      LDR      r1,[r4,#8]
        0x00002b78:    4288        .B      CMP      r0,r1
        0x00002b7a:    d10d        ..      BNE      0x2b98 ; xQueueGiveMutexRecursive + 54
        0x00002b7c:    68e0        .h      LDR      r0,[r4,#0xc]
        0x00002b7e:    1e40        @.      SUBS     r0,r0,#1
        0x00002b80:    60e0        .`      STR      r0,[r4,#0xc]
        0x00002b82:    68e0        .h      LDR      r0,[r4,#0xc]
        0x00002b84:    2800        .(      CMP      r0,#0
        0x00002b86:    d105        ..      BNE      0x2b94 ; xQueueGiveMutexRecursive + 50
        0x00002b88:    2300        .#      MOVS     r3,#0
        0x00002b8a:    461a        .F      MOV      r2,r3
        0x00002b8c:    4619        .F      MOV      r1,r3
        0x00002b8e:    4620         F      MOV      r0,r4
        0x00002b90:    f7ffff08    ....    BL       xQueueGenericSend ; 0x29a4
        0x00002b94:    2601        .&      MOVS     r6,#1
        0x00002b96:    e000        ..      B        0x2b9a ; xQueueGiveMutexRecursive + 56
        0x00002b98:    2600        .&      MOVS     r6,#0
        0x00002b9a:    4630        0F      MOV      r0,r6
        0x00002b9c:    bd70        p.      POP      {r4-r6,pc}
    prvGetDisinheritPriorityAfterTimeout
        0x00002b9e:    4601        .F      MOV      r1,r0
        0x00002ba0:    6a4a        Jj      LDR      r2,[r1,#0x24]
        0x00002ba2:    2a00        .*      CMP      r2,#0
        0x00002ba4:    d004        ..      BEQ      0x2bb0 ; prvGetDisinheritPriorityAfterTimeout + 18
        0x00002ba6:    6b0a        .k      LDR      r2,[r1,#0x30]
        0x00002ba8:    6812        .h      LDR      r2,[r2,#0]
        0x00002baa:    2305        .#      MOVS     r3,#5
        0x00002bac:    1a98        ..      SUBS     r0,r3,r2
        0x00002bae:    e000        ..      B        0x2bb2 ; prvGetDisinheritPriorityAfterTimeout + 20
        0x00002bb0:    2000        .       MOVS     r0,#0
        0x00002bb2:    4770        pG      BX       lr
    prvIsQueueEmpty
        0x00002bb4:    b570        p.      PUSH     {r4-r6,lr}
        0x00002bb6:    4605        .F      MOV      r5,r0
        0x00002bb8:    f000ffb5    ....    BL       vPortEnterCritical ; 0x3b26
        0x00002bbc:    6ba8        .k      LDR      r0,[r5,#0x38]
        0x00002bbe:    2800        .(      CMP      r0,#0
        0x00002bc0:    d101        ..      BNE      0x2bc6 ; prvIsQueueEmpty + 18
        0x00002bc2:    2401        .$      MOVS     r4,#1
        0x00002bc4:    e000        ..      B        0x2bc8 ; prvIsQueueEmpty + 20
        0x00002bc6:    2400        .$      MOVS     r4,#0
        0x00002bc8:    f000ffb8    ....    BL       vPortExitCritical ; 0x3b3c
        0x00002bcc:    4620         F      MOV      r0,r4
        0x00002bce:    bd70        p.      POP      {r4-r6,pc}
    xQueueSemaphoreTake
        0x00002bd0:    b5f3        ..      PUSH     {r0,r1,r4-r7,lr}
        0x00002bd2:    b083        ..      SUB      sp,sp,#0xc
        0x00002bd4:    4605        .F      MOV      r5,r0
        0x00002bd6:    2000        .       MOVS     r0,#0
        0x00002bd8:    9002        ..      STR      r0,[sp,#8]
        0x00002bda:    462c        ,F      MOV      r4,r5
        0x00002bdc:    2600        .&      MOVS     r6,#0
        0x00002bde:    2c00        .,      CMP      r4,#0
        0x00002be0:    d102        ..      BNE      0x2be8 ; xQueueSemaphoreTake + 24
        0x00002be2:    b672        r.      CPSID    i
        0x00002be4:    bf00        ..      NOP      
        0x00002be6:    e7fe        ..      B        0x2be6 ; xQueueSemaphoreTake + 22
        0x00002be8:    6c20         l      LDR      r0,[r4,#0x40]
        0x00002bea:    2800        .(      CMP      r0,#0
        0x00002bec:    d101        ..      BNE      0x2bf2 ; xQueueSemaphoreTake + 34
        0x00002bee:    2001        .       MOVS     r0,#1
        0x00002bf0:    e000        ..      B        0x2bf4 ; xQueueSemaphoreTake + 36
        0x00002bf2:    2000        .       MOVS     r0,#0
        0x00002bf4:    2800        .(      CMP      r0,#0
        0x00002bf6:    d102        ..      BNE      0x2bfe ; xQueueSemaphoreTake + 46
        0x00002bf8:    b672        r.      CPSID    i
        0x00002bfa:    bf00        ..      NOP      
        0x00002bfc:    e7fe        ..      B        0x2bfc ; xQueueSemaphoreTake + 44
        0x00002bfe:    f7fffa70    ..p.    BL       xTaskGetSchedulerState ; 0x20e2
        0x00002c02:    2800        .(      CMP      r0,#0
        0x00002c04:    d102        ..      BNE      0x2c0c ; xQueueSemaphoreTake + 60
        0x00002c06:    9804        ..      LDR      r0,[sp,#0x10]
        0x00002c08:    2800        .(      CMP      r0,#0
        0x00002c0a:    d101        ..      BNE      0x2c10 ; xQueueSemaphoreTake + 64
        0x00002c0c:    2001        .       MOVS     r0,#1
        0x00002c0e:    e000        ..      B        0x2c12 ; xQueueSemaphoreTake + 66
        0x00002c10:    2000        .       MOVS     r0,#0
        0x00002c12:    2800        .(      CMP      r0,#0
        0x00002c14:    d102        ..      BNE      0x2c1c ; xQueueSemaphoreTake + 76
        0x00002c16:    b672        r.      CPSID    i
        0x00002c18:    bf00        ..      NOP      
        0x00002c1a:    e7fe        ..      B        0x2c1a ; xQueueSemaphoreTake + 74
        0x00002c1c:    bf00        ..      NOP      
        0x00002c1e:    f000ff82    ....    BL       vPortEnterCritical ; 0x3b26
        0x00002c22:    6ba7        .k      LDR      r7,[r4,#0x38]
        0x00002c24:    2f00        ./      CMP      r7,#0
        0x00002c26:    d01c        ..      BEQ      0x2c62 ; xQueueSemaphoreTake + 146
        0x00002c28:    1e78        x.      SUBS     r0,r7,#1
        0x00002c2a:    63a0        .c      STR      r0,[r4,#0x38]
        0x00002c2c:    6820         h      LDR      r0,[r4,#0]
        0x00002c2e:    2800        .(      CMP      r0,#0
        0x00002c30:    d102        ..      BNE      0x2c38 ; xQueueSemaphoreTake + 104
        0x00002c32:    f7fffb63    ..c.    BL       pvTaskIncrementMutexHeldCount ; 0x22fc
        0x00002c36:    60a0        .`      STR      r0,[r4,#8]
        0x00002c38:    6920         i      LDR      r0,[r4,#0x10]
        0x00002c3a:    2800        .(      CMP      r0,#0
        0x00002c3c:    d101        ..      BNE      0x2c42 ; xQueueSemaphoreTake + 114
        0x00002c3e:    2001        .       MOVS     r0,#1
        0x00002c40:    e000        ..      B        0x2c44 ; xQueueSemaphoreTake + 116
        0x00002c42:    2000        .       MOVS     r0,#0
        0x00002c44:    2800        .(      CMP      r0,#0
        0x00002c46:    d107        ..      BNE      0x2c58 ; xQueueSemaphoreTake + 136
        0x00002c48:    4620         F      MOV      r0,r4
        0x00002c4a:    3010        .0      ADDS     r0,r0,#0x10
        0x00002c4c:    f7fff976    ..v.    BL       xTaskRemoveFromEventList ; 0x1f3c
        0x00002c50:    2800        .(      CMP      r0,#0
        0x00002c52:    d001        ..      BEQ      0x2c58 ; xQueueSemaphoreTake + 136
        0x00002c54:    f000ff5e    ..^.    BL       vPortYield ; 0x3b14
        0x00002c58:    f000ff70    ..p.    BL       vPortExitCritical ; 0x3b3c
        0x00002c5c:    2001        .       MOVS     r0,#1
        0x00002c5e:    b005        ..      ADD      sp,sp,#0x14
        0x00002c60:    bdf0        ..      POP      {r4-r7,pc}
        0x00002c62:    9804        ..      LDR      r0,[sp,#0x10]
        0x00002c64:    2800        .(      CMP      r0,#0
        0x00002c66:    d10d        ..      BNE      0x2c84 ; xQueueSemaphoreTake + 180
        0x00002c68:    2e00        ..      CMP      r6,#0
        0x00002c6a:    d101        ..      BNE      0x2c70 ; xQueueSemaphoreTake + 160
        0x00002c6c:    2001        .       MOVS     r0,#1
        0x00002c6e:    e000        ..      B        0x2c72 ; xQueueSemaphoreTake + 162
        0x00002c70:    2000        .       MOVS     r0,#0
        0x00002c72:    2800        .(      CMP      r0,#0
        0x00002c74:    d102        ..      BNE      0x2c7c ; xQueueSemaphoreTake + 172
        0x00002c76:    b672        r.      CPSID    i
        0x00002c78:    bf00        ..      NOP      
        0x00002c7a:    e7fe        ..      B        0x2c7a ; xQueueSemaphoreTake + 170
        0x00002c7c:    f000ff5e    ..^.    BL       vPortExitCritical ; 0x3b3c
        0x00002c80:    2000        .       MOVS     r0,#0
        0x00002c82:    e7ec        ..      B        0x2c5e ; xQueueSemaphoreTake + 142
        0x00002c84:    9802        ..      LDR      r0,[sp,#8]
        0x00002c86:    2800        .(      CMP      r0,#0
        0x00002c88:    d104        ..      BNE      0x2c94 ; xQueueSemaphoreTake + 196
        0x00002c8a:    4668        hF      MOV      r0,sp
        0x00002c8c:    f7fff9d9    ....    BL       vTaskInternalSetTimeOutState ; 0x2042
        0x00002c90:    2001        .       MOVS     r0,#1
        0x00002c92:    9002        ..      STR      r0,[sp,#8]
        0x00002c94:    f000ff52    ..R.    BL       vPortExitCritical ; 0x3b3c
        0x00002c98:    f7fefd33    ..3.    BL       vTaskSuspendAll ; 0x1702
        0x00002c9c:    f000ff43    ..C.    BL       vPortEnterCritical ; 0x3b26
        0x00002ca0:    2144        D!      MOVS     r1,#0x44
        0x00002ca2:    5708        .W      LDRSB    r0,[r1,r4]
        0x00002ca4:    1c40        @.      ADDS     r0,r0,#1
        0x00002ca6:    2800        .(      CMP      r0,#0
        0x00002ca8:    d102        ..      BNE      0x2cb0 ; xQueueSemaphoreTake + 224
        0x00002caa:    2100        .!      MOVS     r1,#0
        0x00002cac:    2044        D       MOVS     r0,#0x44
        0x00002cae:    5501        .U      STRB     r1,[r0,r4]
        0x00002cb0:    2145        E!      MOVS     r1,#0x45
        0x00002cb2:    5708        .W      LDRSB    r0,[r1,r4]
        0x00002cb4:    1c40        @.      ADDS     r0,r0,#1
        0x00002cb6:    2800        .(      CMP      r0,#0
        0x00002cb8:    d102        ..      BNE      0x2cc0 ; xQueueSemaphoreTake + 240
        0x00002cba:    2100        .!      MOVS     r1,#0
        0x00002cbc:    2045        E       MOVS     r0,#0x45
        0x00002cbe:    5501        .U      STRB     r1,[r0,r4]
        0x00002cc0:    f000ff3c    ..<.    BL       vPortExitCritical ; 0x3b3c
        0x00002cc4:    a904        ..      ADD      r1,sp,#0x10
        0x00002cc6:    4668        hF      MOV      r0,sp
        0x00002cc8:    f7fff9c2    ....    BL       xTaskCheckForTimeOut ; 0x2050
        0x00002ccc:    2800        .(      CMP      r0,#0
        0x00002cce:    d124        $.      BNE      0x2d1a ; xQueueSemaphoreTake + 330
        0x00002cd0:    4620         F      MOV      r0,r4
        0x00002cd2:    f7ffff6f    ..o.    BL       prvIsQueueEmpty ; 0x2bb4
        0x00002cd6:    2800        .(      CMP      r0,#0
        0x00002cd8:    d019        ..      BEQ      0x2d0e ; xQueueSemaphoreTake + 318
        0x00002cda:    6820         h      LDR      r0,[r4,#0]
        0x00002cdc:    2800        .(      CMP      r0,#0
        0x00002cde:    d107        ..      BNE      0x2cf0 ; xQueueSemaphoreTake + 288
        0x00002ce0:    f000ff21    ..!.    BL       vPortEnterCritical ; 0x3b26
        0x00002ce4:    68a0        .h      LDR      r0,[r4,#8]
        0x00002ce6:    f7fffa0a    ....    BL       xTaskPriorityInherit ; 0x20fe
        0x00002cea:    4606        .F      MOV      r6,r0
        0x00002cec:    f000ff26    ..&.    BL       vPortExitCritical ; 0x3b3c
        0x00002cf0:    4620         F      MOV      r0,r4
        0x00002cf2:    3024        $0      ADDS     r0,r0,#0x24
        0x00002cf4:    9904        ..      LDR      r1,[sp,#0x10]
        0x00002cf6:    f7fff8d0    ....    BL       vTaskPlaceOnEventList ; 0x1e9a
        0x00002cfa:    4620         F      MOV      r0,r4
        0x00002cfc:    f7fffdf0    ....    BL       prvUnlockQueue ; 0x28e0
        0x00002d00:    f7fefc3e    ..>.    BL       xTaskResumeAll ; 0x1580
        0x00002d04:    2800        .(      CMP      r0,#0
        0x00002d06:    d18a        ..      BNE      0x2c1e ; xQueueSemaphoreTake + 78
        0x00002d08:    f000ff04    ....    BL       vPortYield ; 0x3b14
        0x00002d0c:    e787        ..      B        0x2c1e ; xQueueSemaphoreTake + 78
        0x00002d0e:    4620         F      MOV      r0,r4
        0x00002d10:    f7fffde6    ....    BL       prvUnlockQueue ; 0x28e0
        0x00002d14:    f7fefc34    ..4.    BL       xTaskResumeAll ; 0x1580
        0x00002d18:    e781        ..      B        0x2c1e ; xQueueSemaphoreTake + 78
        0x00002d1a:    4620         F      MOV      r0,r4
        0x00002d1c:    f7fffde0    ....    BL       prvUnlockQueue ; 0x28e0
        0x00002d20:    f7fefc2e    ....    BL       xTaskResumeAll ; 0x1580
        0x00002d24:    4620         F      MOV      r0,r4
        0x00002d26:    f7ffff45    ..E.    BL       prvIsQueueEmpty ; 0x2bb4
        0x00002d2a:    2800        .(      CMP      r0,#0
        0x00002d2c:    d0ee        ..      BEQ      0x2d0c ; xQueueSemaphoreTake + 316
        0x00002d2e:    2e00        ..      CMP      r6,#0
        0x00002d30:    d00b        ..      BEQ      0x2d4a ; xQueueSemaphoreTake + 378
        0x00002d32:    f000fef8    ....    BL       vPortEnterCritical ; 0x3b26
        0x00002d36:    4620         F      MOV      r0,r4
        0x00002d38:    f7ffff31    ..1.    BL       prvGetDisinheritPriorityAfterTimeout ; 0x2b9e
        0x00002d3c:    4607        .F      MOV      r7,r0
        0x00002d3e:    4639        9F      MOV      r1,r7
        0x00002d40:    68a0        .h      LDR      r0,[r4,#8]
        0x00002d42:    f7fffa65    ..e.    BL       vTaskPriorityDisinheritAfterTimeout ; 0x2210
        0x00002d46:    f000fef9    ....    BL       vPortExitCritical ; 0x3b3c
        0x00002d4a:    2000        .       MOVS     r0,#0
        0x00002d4c:    e787        ..      B        0x2c5e ; xQueueSemaphoreTake + 142
    xQueueTakeMutexRecursive
        0x00002d4e:    b5f8        ..      PUSH     {r3-r7,lr}
        0x00002d50:    4606        .F      MOV      r6,r0
        0x00002d52:    460f        .F      MOV      r7,r1
        0x00002d54:    4634        4F      MOV      r4,r6
        0x00002d56:    2c00        .,      CMP      r4,#0
        0x00002d58:    d102        ..      BNE      0x2d60 ; xQueueTakeMutexRecursive + 18
        0x00002d5a:    b672        r.      CPSID    i
        0x00002d5c:    bf00        ..      NOP      
        0x00002d5e:    e7fe        ..      B        0x2d5e ; xQueueTakeMutexRecursive + 16
        0x00002d60:    f7fff9bc    ....    BL       xTaskGetCurrentTaskHandle ; 0x20dc
        0x00002d64:    68a1        .h      LDR      r1,[r4,#8]
        0x00002d66:    4288        .B      CMP      r0,r1
        0x00002d68:    d104        ..      BNE      0x2d74 ; xQueueTakeMutexRecursive + 38
        0x00002d6a:    68e0        .h      LDR      r0,[r4,#0xc]
        0x00002d6c:    1c40        @.      ADDS     r0,r0,#1
        0x00002d6e:    60e0        .`      STR      r0,[r4,#0xc]
        0x00002d70:    2501        .%      MOVS     r5,#1
        0x00002d72:    e009        ..      B        0x2d88 ; xQueueTakeMutexRecursive + 58
        0x00002d74:    4639        9F      MOV      r1,r7
        0x00002d76:    4620         F      MOV      r0,r4
        0x00002d78:    f7ffff2a    ..*.    BL       xQueueSemaphoreTake ; 0x2bd0
        0x00002d7c:    4605        .F      MOV      r5,r0
        0x00002d7e:    2d00        .-      CMP      r5,#0
        0x00002d80:    d002        ..      BEQ      0x2d88 ; xQueueTakeMutexRecursive + 58
        0x00002d82:    68e0        .h      LDR      r0,[r4,#0xc]
        0x00002d84:    1c40        @.      ADDS     r0,r0,#1
        0x00002d86:    60e0        .`      STR      r0,[r4,#0xc]
        0x00002d88:    4628        (F      MOV      r0,r5
        0x00002d8a:    bdf8        ..      POP      {r3-r7,pc}
    xQueueCreateCountingSemaphore
        0x00002d8c:    b570        p.      PUSH     {r4-r6,lr}
        0x00002d8e:    4605        .F      MOV      r5,r0
        0x00002d90:    460e        .F      MOV      r6,r1
        0x00002d92:    2d00        .-      CMP      r5,#0
        0x00002d94:    d001        ..      BEQ      0x2d9a ; xQueueCreateCountingSemaphore + 14
        0x00002d96:    2001        .       MOVS     r0,#1
        0x00002d98:    e000        ..      B        0x2d9c ; xQueueCreateCountingSemaphore + 16
        0x00002d9a:    2000        .       MOVS     r0,#0
        0x00002d9c:    2800        .(      CMP      r0,#0
        0x00002d9e:    d102        ..      BNE      0x2da6 ; xQueueCreateCountingSemaphore + 26
        0x00002da0:    b672        r.      CPSID    i
        0x00002da2:    bf00        ..      NOP      
        0x00002da4:    e7fe        ..      B        0x2da4 ; xQueueCreateCountingSemaphore + 24
        0x00002da6:    42ae        .B      CMP      r6,r5
        0x00002da8:    d801        ..      BHI      0x2dae ; xQueueCreateCountingSemaphore + 34
        0x00002daa:    2001        .       MOVS     r0,#1
        0x00002dac:    e000        ..      B        0x2db0 ; xQueueCreateCountingSemaphore + 36
        0x00002dae:    2000        .       MOVS     r0,#0
        0x00002db0:    2800        .(      CMP      r0,#0
        0x00002db2:    d102        ..      BNE      0x2dba ; xQueueCreateCountingSemaphore + 46
        0x00002db4:    b672        r.      CPSID    i
        0x00002db6:    bf00        ..      NOP      
        0x00002db8:    e7fe        ..      B        0x2db8 ; xQueueCreateCountingSemaphore + 44
        0x00002dba:    2202        ."      MOVS     r2,#2
        0x00002dbc:    2100        .!      MOVS     r1,#0
        0x00002dbe:    4628        (F      MOV      r0,r5
        0x00002dc0:    f7fffce7    ....    BL       xQueueGenericCreate ; 0x2792
        0x00002dc4:    4604        .F      MOV      r4,r0
        0x00002dc6:    2c00        .,      CMP      r4,#0
        0x00002dc8:    d000        ..      BEQ      0x2dcc ; xQueueCreateCountingSemaphore + 64
        0x00002dca:    63a6        .c      STR      r6,[r4,#0x38]
        0x00002dcc:    4620         F      MOV      r0,r4
        0x00002dce:    bd70        p.      POP      {r4-r6,pc}
    xQueueGenericSendFromISR
        0x00002dd0:    b5ff        ..      PUSH     {r0-r7,lr}
        0x00002dd2:    b083        ..      SUB      sp,sp,#0xc
        0x00002dd4:    4607        .F      MOV      r7,r0
        0x00002dd6:    4615        .F      MOV      r5,r2
        0x00002dd8:    461e        .F      MOV      r6,r3
        0x00002dda:    463c        <F      MOV      r4,r7
        0x00002ddc:    2c00        .,      CMP      r4,#0
        0x00002dde:    d102        ..      BNE      0x2de6 ; xQueueGenericSendFromISR + 22
        0x00002de0:    b672        r.      CPSID    i
        0x00002de2:    bf00        ..      NOP      
        0x00002de4:    e7fe        ..      B        0x2de4 ; xQueueGenericSendFromISR + 20
        0x00002de6:    9804        ..      LDR      r0,[sp,#0x10]
        0x00002de8:    2800        .(      CMP      r0,#0
        0x00002dea:    d102        ..      BNE      0x2df2 ; xQueueGenericSendFromISR + 34
        0x00002dec:    6c20         l      LDR      r0,[r4,#0x40]
        0x00002dee:    2800        .(      CMP      r0,#0
        0x00002df0:    d101        ..      BNE      0x2df6 ; xQueueGenericSendFromISR + 38
        0x00002df2:    2001        .       MOVS     r0,#1
        0x00002df4:    e000        ..      B        0x2df8 ; xQueueGenericSendFromISR + 40
        0x00002df6:    2000        .       MOVS     r0,#0
        0x00002df8:    2800        .(      CMP      r0,#0
        0x00002dfa:    d102        ..      BNE      0x2e02 ; xQueueGenericSendFromISR + 50
        0x00002dfc:    b672        r.      CPSID    i
        0x00002dfe:    bf00        ..      NOP      
        0x00002e00:    e7fe        ..      B        0x2e00 ; xQueueGenericSendFromISR + 48
        0x00002e02:    2e02        ..      CMP      r6,#2
        0x00002e04:    d102        ..      BNE      0x2e0c ; xQueueGenericSendFromISR + 60
        0x00002e06:    6be0        .k      LDR      r0,[r4,#0x3c]
        0x00002e08:    2801        .(      CMP      r0,#1
        0x00002e0a:    d101        ..      BNE      0x2e10 ; xQueueGenericSendFromISR + 64
        0x00002e0c:    2001        .       MOVS     r0,#1
        0x00002e0e:    e000        ..      B        0x2e12 ; xQueueGenericSendFromISR + 66
        0x00002e10:    2000        .       MOVS     r0,#0
        0x00002e12:    2800        .(      CMP      r0,#0
        0x00002e14:    d102        ..      BNE      0x2e1c ; xQueueGenericSendFromISR + 76
        0x00002e16:    b672        r.      CPSID    i
        0x00002e18:    bf00        ..      NOP      
        0x00002e1a:    e7fe        ..      B        0x2e1a ; xQueueGenericSendFromISR + 74
        0x00002e1c:    f7fdf97c    ..|.    BL       ulSetInterruptMaskFromISR ; 0x118
        0x00002e20:    9001        ..      STR      r0,[sp,#4]
        0x00002e22:    6ba0        .k      LDR      r0,[r4,#0x38]
        0x00002e24:    6be1        .k      LDR      r1,[r4,#0x3c]
        0x00002e26:    4288        .B      CMP      r0,r1
        0x00002e28:    d301        ..      BCC      0x2e2e ; xQueueGenericSendFromISR + 94
        0x00002e2a:    2e02        ..      CMP      r6,#2
        0x00002e2c:    d134        4.      BNE      0x2e98 ; xQueueGenericSendFromISR + 200
        0x00002e2e:    2045        E       MOVS     r0,#0x45
        0x00002e30:    5701        .W      LDRSB    r1,[r0,r4]
        0x00002e32:    9100        ..      STR      r1,[sp,#0]
        0x00002e34:    4632        2F      MOV      r2,r6
        0x00002e36:    4620         F      MOV      r0,r4
        0x00002e38:    9904        ..      LDR      r1,[sp,#0x10]
        0x00002e3a:    f7fffcd4    ....    BL       prvCopyDataToQueue ; 0x27e6
        0x00002e3e:    9800        ..      LDR      r0,[sp,#0]
        0x00002e40:    1c40        @.      ADDS     r0,r0,#1
        0x00002e42:    2800        .(      CMP      r0,#0
        0x00002e44:    d120         .      BNE      0x2e88 ; xQueueGenericSendFromISR + 184
        0x00002e46:    6ca0        .l      LDR      r0,[r4,#0x48]
        0x00002e48:    2800        .(      CMP      r0,#0
        0x00002e4a:    d00a        ..      BEQ      0x2e62 ; xQueueGenericSendFromISR + 146
        0x00002e4c:    4631        1F      MOV      r1,r6
        0x00002e4e:    4620         F      MOV      r0,r4
        0x00002e50:    f7fffd09    ....    BL       prvNotifyQueueSetContainer ; 0x2866
        0x00002e54:    2800        .(      CMP      r0,#0
        0x00002e56:    d01c        ..      BEQ      0x2e92 ; xQueueGenericSendFromISR + 194
        0x00002e58:    2d00        .-      CMP      r5,#0
        0x00002e5a:    d01a        ..      BEQ      0x2e92 ; xQueueGenericSendFromISR + 194
        0x00002e5c:    2001        .       MOVS     r0,#1
        0x00002e5e:    6028        (`      STR      r0,[r5,#0]
        0x00002e60:    e017        ..      B        0x2e92 ; xQueueGenericSendFromISR + 194
        0x00002e62:    6a60        `j      LDR      r0,[r4,#0x24]
        0x00002e64:    2800        .(      CMP      r0,#0
        0x00002e66:    d101        ..      BNE      0x2e6c ; xQueueGenericSendFromISR + 156
        0x00002e68:    2001        .       MOVS     r0,#1
        0x00002e6a:    e000        ..      B        0x2e6e ; xQueueGenericSendFromISR + 158
        0x00002e6c:    2000        .       MOVS     r0,#0
        0x00002e6e:    2800        .(      CMP      r0,#0
        0x00002e70:    d10f        ..      BNE      0x2e92 ; xQueueGenericSendFromISR + 194
        0x00002e72:    4620         F      MOV      r0,r4
        0x00002e74:    3024        $0      ADDS     r0,r0,#0x24
        0x00002e76:    f7fff861    ..a.    BL       xTaskRemoveFromEventList ; 0x1f3c
        0x00002e7a:    2800        .(      CMP      r0,#0
        0x00002e7c:    d009        ..      BEQ      0x2e92 ; xQueueGenericSendFromISR + 194
        0x00002e7e:    2d00        .-      CMP      r5,#0
        0x00002e80:    d007        ..      BEQ      0x2e92 ; xQueueGenericSendFromISR + 194
        0x00002e82:    2001        .       MOVS     r0,#1
        0x00002e84:    6028        (`      STR      r0,[r5,#0]
        0x00002e86:    e004        ..      B        0x2e92 ; xQueueGenericSendFromISR + 194
        0x00002e88:    9800        ..      LDR      r0,[sp,#0]
        0x00002e8a:    1c40        @.      ADDS     r0,r0,#1
        0x00002e8c:    b241        A.      SXTB     r1,r0
        0x00002e8e:    2045        E       MOVS     r0,#0x45
        0x00002e90:    5501        .U      STRB     r1,[r0,r4]
        0x00002e92:    2001        .       MOVS     r0,#1
        0x00002e94:    9002        ..      STR      r0,[sp,#8]
        0x00002e96:    e001        ..      B        0x2e9c ; xQueueGenericSendFromISR + 204
        0x00002e98:    2000        .       MOVS     r0,#0
        0x00002e9a:    9002        ..      STR      r0,[sp,#8]
        0x00002e9c:    9801        ..      LDR      r0,[sp,#4]
        0x00002e9e:    f7fdf93f    ..?.    BL       vClearInterruptMaskFromISR ; 0x120
        0x00002ea2:    9802        ..      LDR      r0,[sp,#8]
        0x00002ea4:    b007        ..      ADD      sp,sp,#0x1c
        0x00002ea6:    bdf0        ..      POP      {r4-r7,pc}
    xQueueGiveFromISR
        0x00002ea8:    b5fe        ..      PUSH     {r1-r7,lr}
        0x00002eaa:    4606        .F      MOV      r6,r0
        0x00002eac:    460d        .F      MOV      r5,r1
        0x00002eae:    4634        4F      MOV      r4,r6
        0x00002eb0:    2c00        .,      CMP      r4,#0
        0x00002eb2:    d102        ..      BNE      0x2eba ; xQueueGiveFromISR + 18
        0x00002eb4:    b672        r.      CPSID    i
        0x00002eb6:    bf00        ..      NOP      
        0x00002eb8:    e7fe        ..      B        0x2eb8 ; xQueueGiveFromISR + 16
        0x00002eba:    6c20         l      LDR      r0,[r4,#0x40]
        0x00002ebc:    2800        .(      CMP      r0,#0
        0x00002ebe:    d101        ..      BNE      0x2ec4 ; xQueueGiveFromISR + 28
        0x00002ec0:    2001        .       MOVS     r0,#1
        0x00002ec2:    e000        ..      B        0x2ec6 ; xQueueGiveFromISR + 30
        0x00002ec4:    2000        .       MOVS     r0,#0
        0x00002ec6:    2800        .(      CMP      r0,#0
        0x00002ec8:    d102        ..      BNE      0x2ed0 ; xQueueGiveFromISR + 40
        0x00002eca:    b672        r.      CPSID    i
        0x00002ecc:    bf00        ..      NOP      
        0x00002ece:    e7fe        ..      B        0x2ece ; xQueueGiveFromISR + 38
        0x00002ed0:    6820         h      LDR      r0,[r4,#0]
        0x00002ed2:    2800        .(      CMP      r0,#0
        0x00002ed4:    d102        ..      BNE      0x2edc ; xQueueGiveFromISR + 52
        0x00002ed6:    68a0        .h      LDR      r0,[r4,#8]
        0x00002ed8:    2800        .(      CMP      r0,#0
        0x00002eda:    d101        ..      BNE      0x2ee0 ; xQueueGiveFromISR + 56
        0x00002edc:    2001        .       MOVS     r0,#1
        0x00002ede:    e000        ..      B        0x2ee2 ; xQueueGiveFromISR + 58
        0x00002ee0:    2000        .       MOVS     r0,#0
        0x00002ee2:    2800        .(      CMP      r0,#0
        0x00002ee4:    d102        ..      BNE      0x2eec ; xQueueGiveFromISR + 68
        0x00002ee6:    b672        r.      CPSID    i
        0x00002ee8:    bf00        ..      NOP      
        0x00002eea:    e7fe        ..      B        0x2eea ; xQueueGiveFromISR + 66
        0x00002eec:    f7fdf914    ....    BL       ulSetInterruptMaskFromISR ; 0x118
        0x00002ef0:    9002        ..      STR      r0,[sp,#8]
        0x00002ef2:    6ba0        .k      LDR      r0,[r4,#0x38]
        0x00002ef4:    9001        ..      STR      r0,[sp,#4]
        0x00002ef6:    6be1        .k      LDR      r1,[r4,#0x3c]
        0x00002ef8:    9801        ..      LDR      r0,[sp,#4]
        0x00002efa:    4281        .B      CMP      r1,r0
        0x00002efc:    d931        1.      BLS      0x2f62 ; xQueueGiveFromISR + 186
        0x00002efe:    2045        E       MOVS     r0,#0x45
        0x00002f00:    5701        .W      LDRSB    r1,[r0,r4]
        0x00002f02:    9100        ..      STR      r1,[sp,#0]
        0x00002f04:    9801        ..      LDR      r0,[sp,#4]
        0x00002f06:    1c40        @.      ADDS     r0,r0,#1
        0x00002f08:    63a0        .c      STR      r0,[r4,#0x38]
        0x00002f0a:    9800        ..      LDR      r0,[sp,#0]
        0x00002f0c:    1c40        @.      ADDS     r0,r0,#1
        0x00002f0e:    2800        .(      CMP      r0,#0
        0x00002f10:    d120         .      BNE      0x2f54 ; xQueueGiveFromISR + 172
        0x00002f12:    6ca0        .l      LDR      r0,[r4,#0x48]
        0x00002f14:    2800        .(      CMP      r0,#0
        0x00002f16:    d00a        ..      BEQ      0x2f2e ; xQueueGiveFromISR + 134
        0x00002f18:    2100        .!      MOVS     r1,#0
        0x00002f1a:    4620         F      MOV      r0,r4
        0x00002f1c:    f7fffca3    ....    BL       prvNotifyQueueSetContainer ; 0x2866
        0x00002f20:    2800        .(      CMP      r0,#0
        0x00002f22:    d01c        ..      BEQ      0x2f5e ; xQueueGiveFromISR + 182
        0x00002f24:    2d00        .-      CMP      r5,#0
        0x00002f26:    d01a        ..      BEQ      0x2f5e ; xQueueGiveFromISR + 182
        0x00002f28:    2001        .       MOVS     r0,#1
        0x00002f2a:    6028        (`      STR      r0,[r5,#0]
        0x00002f2c:    e017        ..      B        0x2f5e ; xQueueGiveFromISR + 182
        0x00002f2e:    6a60        `j      LDR      r0,[r4,#0x24]
        0x00002f30:    2800        .(      CMP      r0,#0
        0x00002f32:    d101        ..      BNE      0x2f38 ; xQueueGiveFromISR + 144
        0x00002f34:    2001        .       MOVS     r0,#1
        0x00002f36:    e000        ..      B        0x2f3a ; xQueueGiveFromISR + 146
        0x00002f38:    2000        .       MOVS     r0,#0
        0x00002f3a:    2800        .(      CMP      r0,#0
        0x00002f3c:    d10f        ..      BNE      0x2f5e ; xQueueGiveFromISR + 182
        0x00002f3e:    4620         F      MOV      r0,r4
        0x00002f40:    3024        $0      ADDS     r0,r0,#0x24
        0x00002f42:    f7fefffb    ....    BL       xTaskRemoveFromEventList ; 0x1f3c
        0x00002f46:    2800        .(      CMP      r0,#0
        0x00002f48:    d009        ..      BEQ      0x2f5e ; xQueueGiveFromISR + 182
        0x00002f4a:    2d00        .-      CMP      r5,#0
        0x00002f4c:    d007        ..      BEQ      0x2f5e ; xQueueGiveFromISR + 182
        0x00002f4e:    2001        .       MOVS     r0,#1
        0x00002f50:    6028        (`      STR      r0,[r5,#0]
        0x00002f52:    e004        ..      B        0x2f5e ; xQueueGiveFromISR + 182
        0x00002f54:    9800        ..      LDR      r0,[sp,#0]
        0x00002f56:    1c40        @.      ADDS     r0,r0,#1
        0x00002f58:    b241        A.      SXTB     r1,r0
        0x00002f5a:    2045        E       MOVS     r0,#0x45
        0x00002f5c:    5501        .U      STRB     r1,[r0,r4]
        0x00002f5e:    2701        .'      MOVS     r7,#1
        0x00002f60:    e000        ..      B        0x2f64 ; xQueueGiveFromISR + 188
        0x00002f62:    2700        .'      MOVS     r7,#0
        0x00002f64:    9802        ..      LDR      r0,[sp,#8]
        0x00002f66:    f7fdf8db    ....    BL       vClearInterruptMaskFromISR ; 0x120
        0x00002f6a:    4638        8F      MOV      r0,r7
        0x00002f6c:    bdfe        ..      POP      {r1-r7,pc}
    prvCopyDataFromQueue
        0x00002f6e:    b570        p.      PUSH     {r4-r6,lr}
        0x00002f70:    4604        .F      MOV      r4,r0
        0x00002f72:    460d        .F      MOV      r5,r1
        0x00002f74:    6c20         l      LDR      r0,[r4,#0x40]
        0x00002f76:    2800        .(      CMP      r0,#0
        0x00002f78:    d00e        ..      BEQ      0x2f98 ; prvCopyDataFromQueue + 42
        0x00002f7a:    6c21        !l      LDR      r1,[r4,#0x40]
        0x00002f7c:    68e0        .h      LDR      r0,[r4,#0xc]
        0x00002f7e:    1841        A.      ADDS     r1,r0,r1
        0x00002f80:    60e1        .`      STR      r1,[r4,#0xc]
        0x00002f82:    68a1        .h      LDR      r1,[r4,#8]
        0x00002f84:    68e0        .h      LDR      r0,[r4,#0xc]
        0x00002f86:    4288        .B      CMP      r0,r1
        0x00002f88:    d301        ..      BCC      0x2f8e ; prvCopyDataFromQueue + 32
        0x00002f8a:    6821        !h      LDR      r1,[r4,#0]
        0x00002f8c:    60e1        .`      STR      r1,[r4,#0xc]
        0x00002f8e:    4628        (F      MOV      r0,r5
        0x00002f90:    6c22        "l      LDR      r2,[r4,#0x40]
        0x00002f92:    68e1        .h      LDR      r1,[r4,#0xc]
        0x00002f94:    f000feac    ....    BL       __aeabi_memcpy ; 0x3cf0
        0x00002f98:    bd70        p.      POP      {r4-r6,pc}
    xQueueReceive
        0x00002f9a:    b5f7        ..      PUSH     {r0-r2,r4-r7,lr}
        0x00002f9c:    b084        ..      SUB      sp,sp,#0x10
        0x00002f9e:    4605        .F      MOV      r5,r0
        0x00002fa0:    460e        .F      MOV      r6,r1
        0x00002fa2:    2000        .       MOVS     r0,#0
        0x00002fa4:    9003        ..      STR      r0,[sp,#0xc]
        0x00002fa6:    462c        ,F      MOV      r4,r5
        0x00002fa8:    2c00        .,      CMP      r4,#0
        0x00002faa:    d102        ..      BNE      0x2fb2 ; xQueueReceive + 24
        0x00002fac:    b672        r.      CPSID    i
        0x00002fae:    bf00        ..      NOP      
        0x00002fb0:    e7fe        ..      B        0x2fb0 ; xQueueReceive + 22
        0x00002fb2:    2e00        ..      CMP      r6,#0
        0x00002fb4:    d102        ..      BNE      0x2fbc ; xQueueReceive + 34
        0x00002fb6:    6c20         l      LDR      r0,[r4,#0x40]
        0x00002fb8:    2800        .(      CMP      r0,#0
        0x00002fba:    d101        ..      BNE      0x2fc0 ; xQueueReceive + 38
        0x00002fbc:    2001        .       MOVS     r0,#1
        0x00002fbe:    e000        ..      B        0x2fc2 ; xQueueReceive + 40
        0x00002fc0:    2000        .       MOVS     r0,#0
        0x00002fc2:    2800        .(      CMP      r0,#0
        0x00002fc4:    d102        ..      BNE      0x2fcc ; xQueueReceive + 50
        0x00002fc6:    b672        r.      CPSID    i
        0x00002fc8:    bf00        ..      NOP      
        0x00002fca:    e7fe        ..      B        0x2fca ; xQueueReceive + 48
        0x00002fcc:    f7fff889    ....    BL       xTaskGetSchedulerState ; 0x20e2
        0x00002fd0:    2800        .(      CMP      r0,#0
        0x00002fd2:    d102        ..      BNE      0x2fda ; xQueueReceive + 64
        0x00002fd4:    9806        ..      LDR      r0,[sp,#0x18]
        0x00002fd6:    2800        .(      CMP      r0,#0
        0x00002fd8:    d101        ..      BNE      0x2fde ; xQueueReceive + 68
        0x00002fda:    2001        .       MOVS     r0,#1
        0x00002fdc:    e000        ..      B        0x2fe0 ; xQueueReceive + 70
        0x00002fde:    2000        .       MOVS     r0,#0
        0x00002fe0:    2800        .(      CMP      r0,#0
        0x00002fe2:    d102        ..      BNE      0x2fea ; xQueueReceive + 80
        0x00002fe4:    b672        r.      CPSID    i
        0x00002fe6:    bf00        ..      NOP      
        0x00002fe8:    e7fe        ..      B        0x2fe8 ; xQueueReceive + 78
        0x00002fea:    bf00        ..      NOP      
        0x00002fec:    f000fd9b    ....    BL       vPortEnterCritical ; 0x3b26
        0x00002ff0:    6ba7        .k      LDR      r7,[r4,#0x38]
        0x00002ff2:    2f00        ./      CMP      r7,#0
        0x00002ff4:    d01a        ..      BEQ      0x302c ; xQueueReceive + 146
        0x00002ff6:    4631        1F      MOV      r1,r6
        0x00002ff8:    4620         F      MOV      r0,r4
        0x00002ffa:    f7ffffb8    ....    BL       prvCopyDataFromQueue ; 0x2f6e
        0x00002ffe:    1e78        x.      SUBS     r0,r7,#1
        0x00003000:    63a0        .c      STR      r0,[r4,#0x38]
        0x00003002:    6920         i      LDR      r0,[r4,#0x10]
        0x00003004:    2800        .(      CMP      r0,#0
        0x00003006:    d101        ..      BNE      0x300c ; xQueueReceive + 114
        0x00003008:    2001        .       MOVS     r0,#1
        0x0000300a:    e000        ..      B        0x300e ; xQueueReceive + 116
        0x0000300c:    2000        .       MOVS     r0,#0
        0x0000300e:    2800        .(      CMP      r0,#0
        0x00003010:    d107        ..      BNE      0x3022 ; xQueueReceive + 136
        0x00003012:    4620         F      MOV      r0,r4
        0x00003014:    3010        .0      ADDS     r0,r0,#0x10
        0x00003016:    f7feff91    ....    BL       xTaskRemoveFromEventList ; 0x1f3c
        0x0000301a:    2800        .(      CMP      r0,#0
        0x0000301c:    d001        ..      BEQ      0x3022 ; xQueueReceive + 136
        0x0000301e:    f000fd79    ..y.    BL       vPortYield ; 0x3b14
        0x00003022:    f000fd8b    ....    BL       vPortExitCritical ; 0x3b3c
        0x00003026:    2001        .       MOVS     r0,#1
        0x00003028:    b007        ..      ADD      sp,sp,#0x1c
        0x0000302a:    bdf0        ..      POP      {r4-r7,pc}
        0x0000302c:    9806        ..      LDR      r0,[sp,#0x18]
        0x0000302e:    2800        .(      CMP      r0,#0
        0x00003030:    d103        ..      BNE      0x303a ; xQueueReceive + 160
        0x00003032:    f000fd83    ....    BL       vPortExitCritical ; 0x3b3c
        0x00003036:    2000        .       MOVS     r0,#0
        0x00003038:    e7f6        ..      B        0x3028 ; xQueueReceive + 142
        0x0000303a:    9803        ..      LDR      r0,[sp,#0xc]
        0x0000303c:    2800        .(      CMP      r0,#0
        0x0000303e:    d104        ..      BNE      0x304a ; xQueueReceive + 176
        0x00003040:    a801        ..      ADD      r0,sp,#4
        0x00003042:    f7fefffe    ....    BL       vTaskInternalSetTimeOutState ; 0x2042
        0x00003046:    2001        .       MOVS     r0,#1
        0x00003048:    9003        ..      STR      r0,[sp,#0xc]
        0x0000304a:    f000fd77    ..w.    BL       vPortExitCritical ; 0x3b3c
        0x0000304e:    f7fefb58    ..X.    BL       vTaskSuspendAll ; 0x1702
        0x00003052:    f000fd68    ..h.    BL       vPortEnterCritical ; 0x3b26
        0x00003056:    2144        D!      MOVS     r1,#0x44
        0x00003058:    5708        .W      LDRSB    r0,[r1,r4]
        0x0000305a:    1c40        @.      ADDS     r0,r0,#1
        0x0000305c:    2800        .(      CMP      r0,#0
        0x0000305e:    d102        ..      BNE      0x3066 ; xQueueReceive + 204
        0x00003060:    2100        .!      MOVS     r1,#0
        0x00003062:    2044        D       MOVS     r0,#0x44
        0x00003064:    5501        .U      STRB     r1,[r0,r4]
        0x00003066:    2145        E!      MOVS     r1,#0x45
        0x00003068:    5708        .W      LDRSB    r0,[r1,r4]
        0x0000306a:    1c40        @.      ADDS     r0,r0,#1
        0x0000306c:    2800        .(      CMP      r0,#0
        0x0000306e:    d102        ..      BNE      0x3076 ; xQueueReceive + 220
        0x00003070:    2100        .!      MOVS     r1,#0
        0x00003072:    2045        E       MOVS     r0,#0x45
        0x00003074:    5501        .U      STRB     r1,[r0,r4]
        0x00003076:    f000fd61    ..a.    BL       vPortExitCritical ; 0x3b3c
        0x0000307a:    a906        ..      ADD      r1,sp,#0x18
        0x0000307c:    a801        ..      ADD      r0,sp,#4
        0x0000307e:    f7feffe7    ....    BL       xTaskCheckForTimeOut ; 0x2050
        0x00003082:    2800        .(      CMP      r0,#0
        0x00003084:    d119        ..      BNE      0x30ba ; xQueueReceive + 288
        0x00003086:    4620         F      MOV      r0,r4
        0x00003088:    f7fffd94    ....    BL       prvIsQueueEmpty ; 0x2bb4
        0x0000308c:    2800        .(      CMP      r0,#0
        0x0000308e:    d00e        ..      BEQ      0x30ae ; xQueueReceive + 276
        0x00003090:    4620         F      MOV      r0,r4
        0x00003092:    3024        $0      ADDS     r0,r0,#0x24
        0x00003094:    9906        ..      LDR      r1,[sp,#0x18]
        0x00003096:    f7feff00    ....    BL       vTaskPlaceOnEventList ; 0x1e9a
        0x0000309a:    4620         F      MOV      r0,r4
        0x0000309c:    f7fffc20    .. .    BL       prvUnlockQueue ; 0x28e0
        0x000030a0:    f7fefa6e    ..n.    BL       xTaskResumeAll ; 0x1580
        0x000030a4:    2800        .(      CMP      r0,#0
        0x000030a6:    d1a1        ..      BNE      0x2fec ; xQueueReceive + 82
        0x000030a8:    f000fd34    ..4.    BL       vPortYield ; 0x3b14
        0x000030ac:    e79e        ..      B        0x2fec ; xQueueReceive + 82
        0x000030ae:    4620         F      MOV      r0,r4
        0x000030b0:    f7fffc16    ....    BL       prvUnlockQueue ; 0x28e0
        0x000030b4:    f7fefa64    ..d.    BL       xTaskResumeAll ; 0x1580
        0x000030b8:    e798        ..      B        0x2fec ; xQueueReceive + 82
        0x000030ba:    4620         F      MOV      r0,r4
        0x000030bc:    f7fffc10    ....    BL       prvUnlockQueue ; 0x28e0
        0x000030c0:    f7fefa5e    ..^.    BL       xTaskResumeAll ; 0x1580
        0x000030c4:    4620         F      MOV      r0,r4
        0x000030c6:    f7fffd75    ..u.    BL       prvIsQueueEmpty ; 0x2bb4
        0x000030ca:    2800        .(      CMP      r0,#0
        0x000030cc:    d08e        ..      BEQ      0x2fec ; xQueueReceive + 82
        0x000030ce:    2000        .       MOVS     r0,#0
        0x000030d0:    e7aa        ..      B        0x3028 ; xQueueReceive + 142
    xQueuePeek
        0x000030d2:    b5f7        ..      PUSH     {r0-r2,r4-r7,lr}
        0x000030d4:    b084        ..      SUB      sp,sp,#0x10
        0x000030d6:    4605        .F      MOV      r5,r0
        0x000030d8:    460e        .F      MOV      r6,r1
        0x000030da:    2000        .       MOVS     r0,#0
        0x000030dc:    9003        ..      STR      r0,[sp,#0xc]
        0x000030de:    462c        ,F      MOV      r4,r5
        0x000030e0:    2c00        .,      CMP      r4,#0
        0x000030e2:    d102        ..      BNE      0x30ea ; xQueuePeek + 24
        0x000030e4:    b672        r.      CPSID    i
        0x000030e6:    bf00        ..      NOP      
        0x000030e8:    e7fe        ..      B        0x30e8 ; xQueuePeek + 22
        0x000030ea:    2e00        ..      CMP      r6,#0
        0x000030ec:    d102        ..      BNE      0x30f4 ; xQueuePeek + 34
        0x000030ee:    6c20         l      LDR      r0,[r4,#0x40]
        0x000030f0:    2800        .(      CMP      r0,#0
        0x000030f2:    d101        ..      BNE      0x30f8 ; xQueuePeek + 38
        0x000030f4:    2001        .       MOVS     r0,#1
        0x000030f6:    e000        ..      B        0x30fa ; xQueuePeek + 40
        0x000030f8:    2000        .       MOVS     r0,#0
        0x000030fa:    2800        .(      CMP      r0,#0
        0x000030fc:    d102        ..      BNE      0x3104 ; xQueuePeek + 50
        0x000030fe:    b672        r.      CPSID    i
        0x00003100:    bf00        ..      NOP      
        0x00003102:    e7fe        ..      B        0x3102 ; xQueuePeek + 48
        0x00003104:    f7feffed    ....    BL       xTaskGetSchedulerState ; 0x20e2
        0x00003108:    2800        .(      CMP      r0,#0
        0x0000310a:    d102        ..      BNE      0x3112 ; xQueuePeek + 64
        0x0000310c:    9806        ..      LDR      r0,[sp,#0x18]
        0x0000310e:    2800        .(      CMP      r0,#0
        0x00003110:    d101        ..      BNE      0x3116 ; xQueuePeek + 68
        0x00003112:    2001        .       MOVS     r0,#1
        0x00003114:    e000        ..      B        0x3118 ; xQueuePeek + 70
        0x00003116:    2000        .       MOVS     r0,#0
        0x00003118:    2800        .(      CMP      r0,#0
        0x0000311a:    d102        ..      BNE      0x3122 ; xQueuePeek + 80
        0x0000311c:    b672        r.      CPSID    i
        0x0000311e:    bf00        ..      NOP      
        0x00003120:    e7fe        ..      B        0x3120 ; xQueuePeek + 78
        0x00003122:    bf00        ..      NOP      
        0x00003124:    f000fcff    ....    BL       vPortEnterCritical ; 0x3b26
        0x00003128:    6ba0        .k      LDR      r0,[r4,#0x38]
        0x0000312a:    9000        ..      STR      r0,[sp,#0]
        0x0000312c:    9800        ..      LDR      r0,[sp,#0]
        0x0000312e:    2800        .(      CMP      r0,#0
        0x00003130:    d01a        ..      BEQ      0x3168 ; xQueuePeek + 150
        0x00003132:    68e7        .h      LDR      r7,[r4,#0xc]
        0x00003134:    4631        1F      MOV      r1,r6
        0x00003136:    4620         F      MOV      r0,r4
        0x00003138:    f7ffff19    ....    BL       prvCopyDataFromQueue ; 0x2f6e
        0x0000313c:    60e7        .`      STR      r7,[r4,#0xc]
        0x0000313e:    6a60        `j      LDR      r0,[r4,#0x24]
        0x00003140:    2800        .(      CMP      r0,#0
        0x00003142:    d101        ..      BNE      0x3148 ; xQueuePeek + 118
        0x00003144:    2001        .       MOVS     r0,#1
        0x00003146:    e000        ..      B        0x314a ; xQueuePeek + 120
        0x00003148:    2000        .       MOVS     r0,#0
        0x0000314a:    2800        .(      CMP      r0,#0
        0x0000314c:    d107        ..      BNE      0x315e ; xQueuePeek + 140
        0x0000314e:    4620         F      MOV      r0,r4
        0x00003150:    3024        $0      ADDS     r0,r0,#0x24
        0x00003152:    f7fefef3    ....    BL       xTaskRemoveFromEventList ; 0x1f3c
        0x00003156:    2800        .(      CMP      r0,#0
        0x00003158:    d001        ..      BEQ      0x315e ; xQueuePeek + 140
        0x0000315a:    f000fcdb    ....    BL       vPortYield ; 0x3b14
        0x0000315e:    f000fced    ....    BL       vPortExitCritical ; 0x3b3c
        0x00003162:    2001        .       MOVS     r0,#1
        0x00003164:    b007        ..      ADD      sp,sp,#0x1c
        0x00003166:    bdf0        ..      POP      {r4-r7,pc}
        0x00003168:    9806        ..      LDR      r0,[sp,#0x18]
        0x0000316a:    2800        .(      CMP      r0,#0
        0x0000316c:    d103        ..      BNE      0x3176 ; xQueuePeek + 164
        0x0000316e:    f000fce5    ....    BL       vPortExitCritical ; 0x3b3c
        0x00003172:    2000        .       MOVS     r0,#0
        0x00003174:    e7f6        ..      B        0x3164 ; xQueuePeek + 146
        0x00003176:    9803        ..      LDR      r0,[sp,#0xc]
        0x00003178:    2800        .(      CMP      r0,#0
        0x0000317a:    d104        ..      BNE      0x3186 ; xQueuePeek + 180
        0x0000317c:    a801        ..      ADD      r0,sp,#4
        0x0000317e:    f7feff60    ..`.    BL       vTaskInternalSetTimeOutState ; 0x2042
        0x00003182:    2001        .       MOVS     r0,#1
        0x00003184:    9003        ..      STR      r0,[sp,#0xc]
        0x00003186:    f000fcd9    ....    BL       vPortExitCritical ; 0x3b3c
        0x0000318a:    f7fefaba    ....    BL       vTaskSuspendAll ; 0x1702
        0x0000318e:    f000fcca    ....    BL       vPortEnterCritical ; 0x3b26
        0x00003192:    2144        D!      MOVS     r1,#0x44
        0x00003194:    5708        .W      LDRSB    r0,[r1,r4]
        0x00003196:    1c40        @.      ADDS     r0,r0,#1
        0x00003198:    2800        .(      CMP      r0,#0
        0x0000319a:    d102        ..      BNE      0x31a2 ; xQueuePeek + 208
        0x0000319c:    2100        .!      MOVS     r1,#0
        0x0000319e:    2044        D       MOVS     r0,#0x44
        0x000031a0:    5501        .U      STRB     r1,[r0,r4]
        0x000031a2:    2145        E!      MOVS     r1,#0x45
        0x000031a4:    5708        .W      LDRSB    r0,[r1,r4]
        0x000031a6:    1c40        @.      ADDS     r0,r0,#1
        0x000031a8:    2800        .(      CMP      r0,#0
        0x000031aa:    d102        ..      BNE      0x31b2 ; xQueuePeek + 224
        0x000031ac:    2100        .!      MOVS     r1,#0
        0x000031ae:    2045        E       MOVS     r0,#0x45
        0x000031b0:    5501        .U      STRB     r1,[r0,r4]
        0x000031b2:    f000fcc3    ....    BL       vPortExitCritical ; 0x3b3c
        0x000031b6:    a906        ..      ADD      r1,sp,#0x18
        0x000031b8:    a801        ..      ADD      r0,sp,#4
        0x000031ba:    f7feff49    ..I.    BL       xTaskCheckForTimeOut ; 0x2050
        0x000031be:    2800        .(      CMP      r0,#0
        0x000031c0:    d119        ..      BNE      0x31f6 ; xQueuePeek + 292
        0x000031c2:    4620         F      MOV      r0,r4
        0x000031c4:    f7fffcf6    ....    BL       prvIsQueueEmpty ; 0x2bb4
        0x000031c8:    2800        .(      CMP      r0,#0
        0x000031ca:    d00e        ..      BEQ      0x31ea ; xQueuePeek + 280
        0x000031cc:    4620         F      MOV      r0,r4
        0x000031ce:    3024        $0      ADDS     r0,r0,#0x24
        0x000031d0:    9906        ..      LDR      r1,[sp,#0x18]
        0x000031d2:    f7fefe62    ..b.    BL       vTaskPlaceOnEventList ; 0x1e9a
        0x000031d6:    4620         F      MOV      r0,r4
        0x000031d8:    f7fffb82    ....    BL       prvUnlockQueue ; 0x28e0
        0x000031dc:    f7fef9d0    ....    BL       xTaskResumeAll ; 0x1580
        0x000031e0:    2800        .(      CMP      r0,#0
        0x000031e2:    d19f        ..      BNE      0x3124 ; xQueuePeek + 82
        0x000031e4:    f000fc96    ....    BL       vPortYield ; 0x3b14
        0x000031e8:    e79c        ..      B        0x3124 ; xQueuePeek + 82
        0x000031ea:    4620         F      MOV      r0,r4
        0x000031ec:    f7fffb78    ..x.    BL       prvUnlockQueue ; 0x28e0
        0x000031f0:    f7fef9c6    ....    BL       xTaskResumeAll ; 0x1580
        0x000031f4:    e796        ..      B        0x3124 ; xQueuePeek + 82
        0x000031f6:    4620         F      MOV      r0,r4
        0x000031f8:    f7fffb72    ..r.    BL       prvUnlockQueue ; 0x28e0
        0x000031fc:    f7fef9c0    ....    BL       xTaskResumeAll ; 0x1580
        0x00003200:    4620         F      MOV      r0,r4
        0x00003202:    f7fffcd7    ....    BL       prvIsQueueEmpty ; 0x2bb4
        0x00003206:    2800        .(      CMP      r0,#0
        0x00003208:    d08c        ..      BEQ      0x3124 ; xQueuePeek + 82
        0x0000320a:    2000        .       MOVS     r0,#0
        0x0000320c:    e7aa        ..      B        0x3164 ; xQueuePeek + 146
    xQueueReceiveFromISR
        0x0000320e:    b5f7        ..      PUSH     {r0-r2,r4-r7,lr}
        0x00003210:    b084        ..      SUB      sp,sp,#0x10
        0x00003212:    4605        .F      MOV      r5,r0
        0x00003214:    4616        .F      MOV      r6,r2
        0x00003216:    462c        ,F      MOV      r4,r5
        0x00003218:    2c00        .,      CMP      r4,#0
        0x0000321a:    d102        ..      BNE      0x3222 ; xQueueReceiveFromISR + 20
        0x0000321c:    b672        r.      CPSID    i
        0x0000321e:    bf00        ..      NOP      
        0x00003220:    e7fe        ..      B        0x3220 ; xQueueReceiveFromISR + 18
        0x00003222:    9805        ..      LDR      r0,[sp,#0x14]
        0x00003224:    2800        .(      CMP      r0,#0
        0x00003226:    d102        ..      BNE      0x322e ; xQueueReceiveFromISR + 32
        0x00003228:    6c20         l      LDR      r0,[r4,#0x40]
        0x0000322a:    2800        .(      CMP      r0,#0
        0x0000322c:    d101        ..      BNE      0x3232 ; xQueueReceiveFromISR + 36
        0x0000322e:    2001        .       MOVS     r0,#1
        0x00003230:    e000        ..      B        0x3234 ; xQueueReceiveFromISR + 38
        0x00003232:    2000        .       MOVS     r0,#0
        0x00003234:    2800        .(      CMP      r0,#0
        0x00003236:    d102        ..      BNE      0x323e ; xQueueReceiveFromISR + 48
        0x00003238:    b672        r.      CPSID    i
        0x0000323a:    bf00        ..      NOP      
        0x0000323c:    e7fe        ..      B        0x323c ; xQueueReceiveFromISR + 46
        0x0000323e:    f7fcff6b    ..k.    BL       ulSetInterruptMaskFromISR ; 0x118
        0x00003242:    9003        ..      STR      r0,[sp,#0xc]
        0x00003244:    6ba0        .k      LDR      r0,[r4,#0x38]
        0x00003246:    9002        ..      STR      r0,[sp,#8]
        0x00003248:    9802        ..      LDR      r0,[sp,#8]
        0x0000324a:    2800        .(      CMP      r0,#0
        0x0000324c:    d027        '.      BEQ      0x329e ; xQueueReceiveFromISR + 144
        0x0000324e:    2044        D       MOVS     r0,#0x44
        0x00003250:    5701        .W      LDRSB    r1,[r0,r4]
        0x00003252:    9101        ..      STR      r1,[sp,#4]
        0x00003254:    4620         F      MOV      r0,r4
        0x00003256:    9905        ..      LDR      r1,[sp,#0x14]
        0x00003258:    f7fffe89    ....    BL       prvCopyDataFromQueue ; 0x2f6e
        0x0000325c:    9802        ..      LDR      r0,[sp,#8]
        0x0000325e:    1e40        @.      SUBS     r0,r0,#1
        0x00003260:    63a0        .c      STR      r0,[r4,#0x38]
        0x00003262:    9801        ..      LDR      r0,[sp,#4]
        0x00003264:    1c40        @.      ADDS     r0,r0,#1
        0x00003266:    2800        .(      CMP      r0,#0
        0x00003268:    d112        ..      BNE      0x3290 ; xQueueReceiveFromISR + 130
        0x0000326a:    6920         i      LDR      r0,[r4,#0x10]
        0x0000326c:    2800        .(      CMP      r0,#0
        0x0000326e:    d101        ..      BNE      0x3274 ; xQueueReceiveFromISR + 102
        0x00003270:    2001        .       MOVS     r0,#1
        0x00003272:    e000        ..      B        0x3276 ; xQueueReceiveFromISR + 104
        0x00003274:    2000        .       MOVS     r0,#0
        0x00003276:    2800        .(      CMP      r0,#0
        0x00003278:    d10f        ..      BNE      0x329a ; xQueueReceiveFromISR + 140
        0x0000327a:    4620         F      MOV      r0,r4
        0x0000327c:    3010        .0      ADDS     r0,r0,#0x10
        0x0000327e:    f7fefe5d    ..].    BL       xTaskRemoveFromEventList ; 0x1f3c
        0x00003282:    2800        .(      CMP      r0,#0
        0x00003284:    d009        ..      BEQ      0x329a ; xQueueReceiveFromISR + 140
        0x00003286:    2e00        ..      CMP      r6,#0
        0x00003288:    d007        ..      BEQ      0x329a ; xQueueReceiveFromISR + 140
        0x0000328a:    2001        .       MOVS     r0,#1
        0x0000328c:    6030        0`      STR      r0,[r6,#0]
        0x0000328e:    e004        ..      B        0x329a ; xQueueReceiveFromISR + 140
        0x00003290:    9801        ..      LDR      r0,[sp,#4]
        0x00003292:    1c40        @.      ADDS     r0,r0,#1
        0x00003294:    b241        A.      SXTB     r1,r0
        0x00003296:    2044        D       MOVS     r0,#0x44
        0x00003298:    5501        .U      STRB     r1,[r0,r4]
        0x0000329a:    2701        .'      MOVS     r7,#1
        0x0000329c:    e000        ..      B        0x32a0 ; xQueueReceiveFromISR + 146
        0x0000329e:    2700        .'      MOVS     r7,#0
        0x000032a0:    9803        ..      LDR      r0,[sp,#0xc]
        0x000032a2:    f7fcff3d    ..=.    BL       vClearInterruptMaskFromISR ; 0x120
        0x000032a6:    4638        8F      MOV      r0,r7
        0x000032a8:    b007        ..      ADD      sp,sp,#0x1c
        0x000032aa:    bdf0        ..      POP      {r4-r7,pc}
    xQueuePeekFromISR
        0x000032ac:    b5f3        ..      PUSH     {r0,r1,r4-r7,lr}
        0x000032ae:    b081        ..      SUB      sp,sp,#4
        0x000032b0:    4605        .F      MOV      r5,r0
        0x000032b2:    462c        ,F      MOV      r4,r5
        0x000032b4:    2c00        .,      CMP      r4,#0
        0x000032b6:    d102        ..      BNE      0x32be ; xQueuePeekFromISR + 18
        0x000032b8:    b672        r.      CPSID    i
        0x000032ba:    bf00        ..      NOP      
        0x000032bc:    e7fe        ..      B        0x32bc ; xQueuePeekFromISR + 16
        0x000032be:    9802        ..      LDR      r0,[sp,#8]
        0x000032c0:    2800        .(      CMP      r0,#0
        0x000032c2:    d102        ..      BNE      0x32ca ; xQueuePeekFromISR + 30
        0x000032c4:    6c20         l      LDR      r0,[r4,#0x40]
        0x000032c6:    2800        .(      CMP      r0,#0
        0x000032c8:    d101        ..      BNE      0x32ce ; xQueuePeekFromISR + 34
        0x000032ca:    2001        .       MOVS     r0,#1
        0x000032cc:    e000        ..      B        0x32d0 ; xQueuePeekFromISR + 36
        0x000032ce:    2000        .       MOVS     r0,#0
        0x000032d0:    2800        .(      CMP      r0,#0
        0x000032d2:    d102        ..      BNE      0x32da ; xQueuePeekFromISR + 46
        0x000032d4:    b672        r.      CPSID    i
        0x000032d6:    bf00        ..      NOP      
        0x000032d8:    e7fe        ..      B        0x32d8 ; xQueuePeekFromISR + 44
        0x000032da:    6c20         l      LDR      r0,[r4,#0x40]
        0x000032dc:    2800        .(      CMP      r0,#0
        0x000032de:    d001        ..      BEQ      0x32e4 ; xQueuePeekFromISR + 56
        0x000032e0:    2001        .       MOVS     r0,#1
        0x000032e2:    e000        ..      B        0x32e6 ; xQueuePeekFromISR + 58
        0x000032e4:    2000        .       MOVS     r0,#0
        0x000032e6:    2800        .(      CMP      r0,#0
        0x000032e8:    d102        ..      BNE      0x32f0 ; xQueuePeekFromISR + 68
        0x000032ea:    b672        r.      CPSID    i
        0x000032ec:    bf00        ..      NOP      
        0x000032ee:    e7fe        ..      B        0x32ee ; xQueuePeekFromISR + 66
        0x000032f0:    f7fcff12    ....    BL       ulSetInterruptMaskFromISR ; 0x118
        0x000032f4:    9000        ..      STR      r0,[sp,#0]
        0x000032f6:    6ba0        .k      LDR      r0,[r4,#0x38]
        0x000032f8:    2800        .(      CMP      r0,#0
        0x000032fa:    d007        ..      BEQ      0x330c ; xQueuePeekFromISR + 96
        0x000032fc:    68e7        .h      LDR      r7,[r4,#0xc]
        0x000032fe:    4620         F      MOV      r0,r4
        0x00003300:    9902        ..      LDR      r1,[sp,#8]
        0x00003302:    f7fffe34    ..4.    BL       prvCopyDataFromQueue ; 0x2f6e
        0x00003306:    60e7        .`      STR      r7,[r4,#0xc]
        0x00003308:    2601        .&      MOVS     r6,#1
        0x0000330a:    e000        ..      B        0x330e ; xQueuePeekFromISR + 98
        0x0000330c:    2600        .&      MOVS     r6,#0
        0x0000330e:    9800        ..      LDR      r0,[sp,#0]
        0x00003310:    f7fcff06    ....    BL       vClearInterruptMaskFromISR ; 0x120
        0x00003314:    4630        0F      MOV      r0,r6
        0x00003316:    bdfe        ..      POP      {r1-r7,pc}
    uxQueueMessagesWaiting
        0x00003318:    b570        p.      PUSH     {r4-r6,lr}
        0x0000331a:    4604        .F      MOV      r4,r0
        0x0000331c:    2c00        .,      CMP      r4,#0
        0x0000331e:    d102        ..      BNE      0x3326 ; uxQueueMessagesWaiting + 14
        0x00003320:    b672        r.      CPSID    i
        0x00003322:    bf00        ..      NOP      
        0x00003324:    e7fe        ..      B        0x3324 ; uxQueueMessagesWaiting + 12
        0x00003326:    f000fbfe    ....    BL       vPortEnterCritical ; 0x3b26
        0x0000332a:    6ba5        .k      LDR      r5,[r4,#0x38]
        0x0000332c:    f000fc06    ....    BL       vPortExitCritical ; 0x3b3c
        0x00003330:    4628        (F      MOV      r0,r5
        0x00003332:    bd70        p.      POP      {r4-r6,pc}
    uxQueueSpacesAvailable
        0x00003334:    b570        p.      PUSH     {r4-r6,lr}
        0x00003336:    4604        .F      MOV      r4,r0
        0x00003338:    4625        %F      MOV      r5,r4
        0x0000333a:    2d00        .-      CMP      r5,#0
        0x0000333c:    d102        ..      BNE      0x3344 ; uxQueueSpacesAvailable + 16
        0x0000333e:    b672        r.      CPSID    i
        0x00003340:    bf00        ..      NOP      
        0x00003342:    e7fe        ..      B        0x3342 ; uxQueueSpacesAvailable + 14
        0x00003344:    f000fbef    ....    BL       vPortEnterCritical ; 0x3b26
        0x00003348:    6ba9        .k      LDR      r1,[r5,#0x38]
        0x0000334a:    6be8        .k      LDR      r0,[r5,#0x3c]
        0x0000334c:    1a46        F.      SUBS     r6,r0,r1
        0x0000334e:    f000fbf5    ....    BL       vPortExitCritical ; 0x3b3c
        0x00003352:    4630        0F      MOV      r0,r6
        0x00003354:    bd70        p.      POP      {r4-r6,pc}
    uxQueueMessagesWaitingFromISR
        0x00003356:    4601        .F      MOV      r1,r0
        0x00003358:    460a        .F      MOV      r2,r1
        0x0000335a:    2a00        .*      CMP      r2,#0
        0x0000335c:    d102        ..      BNE      0x3364 ; uxQueueMessagesWaitingFromISR + 14
        0x0000335e:    b672        r.      CPSID    i
        0x00003360:    bf00        ..      NOP      
        0x00003362:    e7fe        ..      B        0x3362 ; uxQueueMessagesWaitingFromISR + 12
        0x00003364:    6b90        .k      LDR      r0,[r2,#0x38]
        0x00003366:    4770        pG      BX       lr
    vQueueUnregisterQueue
        0x00003368:    b510        ..      PUSH     {r4,lr}
        0x0000336a:    4601        .F      MOV      r1,r0
        0x0000336c:    2000        .       MOVS     r0,#0
        0x0000336e:    e00e        ..      B        0x338e ; vQueueUnregisterQueue + 38
        0x00003370:    00c2        ..      LSLS     r2,r0,#3
        0x00003372:    4b71        qK      LDR      r3,[pc,#452] ; [0x3538] = 0x20000148
        0x00003374:    18d2        ..      ADDS     r2,r2,r3
        0x00003376:    6852        Rh      LDR      r2,[r2,#4]
        0x00003378:    428a        .B      CMP      r2,r1
        0x0000337a:    d107        ..      BNE      0x338c ; vQueueUnregisterQueue + 36
        0x0000337c:    2200        ."      MOVS     r2,#0
        0x0000337e:    00c3        ..      LSLS     r3,r0,#3
        0x00003380:    4c6d        mL      LDR      r4,[pc,#436] ; [0x3538] = 0x20000148
        0x00003382:    50e2        .P      STR      r2,[r4,r3]
        0x00003384:    00c3        ..      LSLS     r3,r0,#3
        0x00003386:    191b        ..      ADDS     r3,r3,r4
        0x00003388:    605a        Z`      STR      r2,[r3,#4]
        0x0000338a:    e002        ..      B        0x3392 ; vQueueUnregisterQueue + 42
        0x0000338c:    1c40        @.      ADDS     r0,r0,#1
        0x0000338e:    2808        .(      CMP      r0,#8
        0x00003390:    d3ee        ..      BCC      0x3370 ; vQueueUnregisterQueue + 8
        0x00003392:    bf00        ..      NOP      
        0x00003394:    bd10        ..      POP      {r4,pc}
    vQueueDelete
        0x00003396:    b570        p.      PUSH     {r4-r6,lr}
        0x00003398:    4604        .F      MOV      r4,r0
        0x0000339a:    4625        %F      MOV      r5,r4
        0x0000339c:    2d00        .-      CMP      r5,#0
        0x0000339e:    d102        ..      BNE      0x33a6 ; vQueueDelete + 16
        0x000033a0:    b672        r.      CPSID    i
        0x000033a2:    bf00        ..      NOP      
        0x000033a4:    e7fe        ..      B        0x33a4 ; vQueueDelete + 14
        0x000033a6:    4628        (F      MOV      r0,r5
        0x000033a8:    f7ffffde    ....    BL       vQueueUnregisterQueue ; 0x3368
        0x000033ac:    4628        (F      MOV      r0,r5
        0x000033ae:    f000fc5c    ..\.    BL       vPortFree ; 0x3c6a
        0x000033b2:    bd70        p.      POP      {r4-r6,pc}
    uxQueueGetQueueNumber
        0x000033b4:    4601        .F      MOV      r1,r0
        0x000033b6:    6cc8        .l      LDR      r0,[r1,#0x4c]
        0x000033b8:    4770        pG      BX       lr
    vQueueSetQueueNumber
        0x000033ba:    64c1        .d      STR      r1,[r0,#0x4c]
        0x000033bc:    4770        pG      BX       lr
    ucQueueGetQueueType
        0x000033be:    4601        .F      MOV      r1,r0
        0x000033c0:    2050        P       MOVS     r0,#0x50
        0x000033c2:    5c40        @\      LDRB     r0,[r0,r1]
        0x000033c4:    4770        pG      BX       lr
    xQueueIsQueueEmptyFromISR
        0x000033c6:    4601        .F      MOV      r1,r0
        0x000033c8:    460a        .F      MOV      r2,r1
        0x000033ca:    2a00        .*      CMP      r2,#0
        0x000033cc:    d102        ..      BNE      0x33d4 ; xQueueIsQueueEmptyFromISR + 14
        0x000033ce:    b672        r.      CPSID    i
        0x000033d0:    bf00        ..      NOP      
        0x000033d2:    e7fe        ..      B        0x33d2 ; xQueueIsQueueEmptyFromISR + 12
        0x000033d4:    6b93        .k      LDR      r3,[r2,#0x38]
        0x000033d6:    2b00        .+      CMP      r3,#0
        0x000033d8:    d101        ..      BNE      0x33de ; xQueueIsQueueEmptyFromISR + 24
        0x000033da:    2001        .       MOVS     r0,#1
        0x000033dc:    e000        ..      B        0x33e0 ; xQueueIsQueueEmptyFromISR + 26
        0x000033de:    2000        .       MOVS     r0,#0
        0x000033e0:    4770        pG      BX       lr
    xQueueIsQueueFullFromISR
        0x000033e2:    b510        ..      PUSH     {r4,lr}
        0x000033e4:    4601        .F      MOV      r1,r0
        0x000033e6:    460a        .F      MOV      r2,r1
        0x000033e8:    2a00        .*      CMP      r2,#0
        0x000033ea:    d102        ..      BNE      0x33f2 ; xQueueIsQueueFullFromISR + 16
        0x000033ec:    b672        r.      CPSID    i
        0x000033ee:    bf00        ..      NOP      
        0x000033f0:    e7fe        ..      B        0x33f0 ; xQueueIsQueueFullFromISR + 14
        0x000033f2:    6b93        .k      LDR      r3,[r2,#0x38]
        0x000033f4:    6bd4        .k      LDR      r4,[r2,#0x3c]
        0x000033f6:    42a3        .B      CMP      r3,r4
        0x000033f8:    d101        ..      BNE      0x33fe ; xQueueIsQueueFullFromISR + 28
        0x000033fa:    2001        .       MOVS     r0,#1
        0x000033fc:    e000        ..      B        0x3400 ; xQueueIsQueueFullFromISR + 30
        0x000033fe:    2000        .       MOVS     r0,#0
        0x00003400:    bd10        ..      POP      {r4,pc}
    vQueueAddToRegistry
        0x00003402:    b510        ..      PUSH     {r4,lr}
        0x00003404:    4602        .F      MOV      r2,r0
        0x00003406:    2000        .       MOVS     r0,#0
        0x00003408:    e00b        ..      B        0x3422 ; vQueueAddToRegistry + 32
        0x0000340a:    00c3        ..      LSLS     r3,r0,#3
        0x0000340c:    4c4a        JL      LDR      r4,[pc,#296] ; [0x3538] = 0x20000148
        0x0000340e:    58e3        .X      LDR      r3,[r4,r3]
        0x00003410:    2b00        .+      CMP      r3,#0
        0x00003412:    d105        ..      BNE      0x3420 ; vQueueAddToRegistry + 30
        0x00003414:    00c3        ..      LSLS     r3,r0,#3
        0x00003416:    50e1        .P      STR      r1,[r4,r3]
        0x00003418:    00c3        ..      LSLS     r3,r0,#3
        0x0000341a:    191b        ..      ADDS     r3,r3,r4
        0x0000341c:    605a        Z`      STR      r2,[r3,#4]
        0x0000341e:    e002        ..      B        0x3426 ; vQueueAddToRegistry + 36
        0x00003420:    1c40        @.      ADDS     r0,r0,#1
        0x00003422:    2808        .(      CMP      r0,#8
        0x00003424:    d3f1        ..      BCC      0x340a ; vQueueAddToRegistry + 8
        0x00003426:    bf00        ..      NOP      
        0x00003428:    bd10        ..      POP      {r4,pc}
    pcQueueGetName
        0x0000342a:    b510        ..      PUSH     {r4,lr}
        0x0000342c:    4602        .F      MOV      r2,r0
        0x0000342e:    2000        .       MOVS     r0,#0
        0x00003430:    2100        .!      MOVS     r1,#0
        0x00003432:    e009        ..      B        0x3448 ; pcQueueGetName + 30
        0x00003434:    00cb        ..      LSLS     r3,r1,#3
        0x00003436:    4c40        @L      LDR      r4,[pc,#256] ; [0x3538] = 0x20000148
        0x00003438:    191b        ..      ADDS     r3,r3,r4
        0x0000343a:    685b        [h      LDR      r3,[r3,#4]
        0x0000343c:    4293        .B      CMP      r3,r2
        0x0000343e:    d102        ..      BNE      0x3446 ; pcQueueGetName + 28
        0x00003440:    00cb        ..      LSLS     r3,r1,#3
        0x00003442:    58e0        .X      LDR      r0,[r4,r3]
        0x00003444:    e002        ..      B        0x344c ; pcQueueGetName + 34
        0x00003446:    1c49        I.      ADDS     r1,r1,#1
        0x00003448:    2908        .)      CMP      r1,#8
        0x0000344a:    d3f3        ..      BCC      0x3434 ; pcQueueGetName + 10
        0x0000344c:    bf00        ..      NOP      
        0x0000344e:    bd10        ..      POP      {r4,pc}
    vQueueWaitForMessageRestricted
        0x00003450:    b5f8        ..      PUSH     {r3-r7,lr}
        0x00003452:    4605        .F      MOV      r5,r0
        0x00003454:    460e        .F      MOV      r6,r1
        0x00003456:    4617        .F      MOV      r7,r2
        0x00003458:    462c        ,F      MOV      r4,r5
        0x0000345a:    f000fb64    ..d.    BL       vPortEnterCritical ; 0x3b26
        0x0000345e:    2144        D!      MOVS     r1,#0x44
        0x00003460:    5708        .W      LDRSB    r0,[r1,r4]
        0x00003462:    1c40        @.      ADDS     r0,r0,#1
        0x00003464:    2800        .(      CMP      r0,#0
        0x00003466:    d102        ..      BNE      0x346e ; vQueueWaitForMessageRestricted + 30
        0x00003468:    2100        .!      MOVS     r1,#0
        0x0000346a:    2044        D       MOVS     r0,#0x44
        0x0000346c:    5501        .U      STRB     r1,[r0,r4]
        0x0000346e:    2145        E!      MOVS     r1,#0x45
        0x00003470:    5708        .W      LDRSB    r0,[r1,r4]
        0x00003472:    1c40        @.      ADDS     r0,r0,#1
        0x00003474:    2800        .(      CMP      r0,#0
        0x00003476:    d102        ..      BNE      0x347e ; vQueueWaitForMessageRestricted + 46
        0x00003478:    2100        .!      MOVS     r1,#0
        0x0000347a:    2045        E       MOVS     r0,#0x45
        0x0000347c:    5501        .U      STRB     r1,[r0,r4]
        0x0000347e:    f000fb5d    ..].    BL       vPortExitCritical ; 0x3b3c
        0x00003482:    6ba0        .k      LDR      r0,[r4,#0x38]
        0x00003484:    2800        .(      CMP      r0,#0
        0x00003486:    d105        ..      BNE      0x3494 ; vQueueWaitForMessageRestricted + 68
        0x00003488:    463a        :F      MOV      r2,r7
        0x0000348a:    4631        1F      MOV      r1,r6
        0x0000348c:    4620         F      MOV      r0,r4
        0x0000348e:    3024        $0      ADDS     r0,r0,#0x24
        0x00003490:    f7fefd3c    ..<.    BL       vTaskPlaceOnEventListRestricted ; 0x1f0c
        0x00003494:    4620         F      MOV      r0,r4
        0x00003496:    f7fffa23    ..#.    BL       prvUnlockQueue ; 0x28e0
        0x0000349a:    bdf8        ..      POP      {r3-r7,pc}
    xQueueCreateSet
        0x0000349c:    b570        p.      PUSH     {r4-r6,lr}
        0x0000349e:    4604        .F      MOV      r4,r0
        0x000034a0:    2200        ."      MOVS     r2,#0
        0x000034a2:    2104        .!      MOVS     r1,#4
        0x000034a4:    4620         F      MOV      r0,r4
        0x000034a6:    f7fff974    ..t.    BL       xQueueGenericCreate ; 0x2792
        0x000034aa:    4605        .F      MOV      r5,r0
        0x000034ac:    4628        (F      MOV      r0,r5
        0x000034ae:    bd70        p.      POP      {r4-r6,pc}
    xQueueAddToSet
        0x000034b0:    b570        p.      PUSH     {r4-r6,lr}
        0x000034b2:    4604        .F      MOV      r4,r0
        0x000034b4:    460e        .F      MOV      r6,r1
        0x000034b6:    f000fb36    ..6.    BL       vPortEnterCritical ; 0x3b26
        0x000034ba:    6ca0        .l      LDR      r0,[r4,#0x48]
        0x000034bc:    2800        .(      CMP      r0,#0
        0x000034be:    d001        ..      BEQ      0x34c4 ; xQueueAddToSet + 20
        0x000034c0:    2500        .%      MOVS     r5,#0
        0x000034c2:    e006        ..      B        0x34d2 ; xQueueAddToSet + 34
        0x000034c4:    6ba0        .k      LDR      r0,[r4,#0x38]
        0x000034c6:    2800        .(      CMP      r0,#0
        0x000034c8:    d001        ..      BEQ      0x34ce ; xQueueAddToSet + 30
        0x000034ca:    2500        .%      MOVS     r5,#0
        0x000034cc:    e001        ..      B        0x34d2 ; xQueueAddToSet + 34
        0x000034ce:    64a6        .d      STR      r6,[r4,#0x48]
        0x000034d0:    2501        .%      MOVS     r5,#1
        0x000034d2:    f000fb33    ..3.    BL       vPortExitCritical ; 0x3b3c
        0x000034d6:    4628        (F      MOV      r0,r5
        0x000034d8:    bd70        p.      POP      {r4-r6,pc}
    xQueueRemoveFromSet
        0x000034da:    b5f8        ..      PUSH     {r3-r7,lr}
        0x000034dc:    4605        .F      MOV      r5,r0
        0x000034de:    460f        .F      MOV      r7,r1
        0x000034e0:    462e        .F      MOV      r6,r5
        0x000034e2:    6cb0        .l      LDR      r0,[r6,#0x48]
        0x000034e4:    42b8        .B      CMP      r0,r7
        0x000034e6:    d001        ..      BEQ      0x34ec ; xQueueRemoveFromSet + 18
        0x000034e8:    2400        .$      MOVS     r4,#0
        0x000034ea:    e00b        ..      B        0x3504 ; xQueueRemoveFromSet + 42
        0x000034ec:    6bb0        .k      LDR      r0,[r6,#0x38]
        0x000034ee:    2800        .(      CMP      r0,#0
        0x000034f0:    d001        ..      BEQ      0x34f6 ; xQueueRemoveFromSet + 28
        0x000034f2:    2400        .$      MOVS     r4,#0
        0x000034f4:    e006        ..      B        0x3504 ; xQueueRemoveFromSet + 42
        0x000034f6:    f000fb16    ....    BL       vPortEnterCritical ; 0x3b26
        0x000034fa:    2000        .       MOVS     r0,#0
        0x000034fc:    64b0        .d      STR      r0,[r6,#0x48]
        0x000034fe:    f000fb1d    ....    BL       vPortExitCritical ; 0x3b3c
        0x00003502:    2401        .$      MOVS     r4,#1
        0x00003504:    4620         F      MOV      r0,r4
        0x00003506:    bdf8        ..      POP      {r3-r7,pc}
    xQueueSelectFromSet
        0x00003508:    b538        8.      PUSH     {r3-r5,lr}
        0x0000350a:    4605        .F      MOV      r5,r0
        0x0000350c:    460c        .F      MOV      r4,r1
        0x0000350e:    2000        .       MOVS     r0,#0
        0x00003510:    9000        ..      STR      r0,[sp,#0]
        0x00003512:    4622        "F      MOV      r2,r4
        0x00003514:    4669        iF      MOV      r1,sp
        0x00003516:    4628        (F      MOV      r0,r5
        0x00003518:    f7fffd3f    ..?.    BL       xQueueReceive ; 0x2f9a
        0x0000351c:    9800        ..      LDR      r0,[sp,#0]
        0x0000351e:    bd38        8.      POP      {r3-r5,pc}
    xQueueSelectFromSetFromISR
        0x00003520:    b538        8.      PUSH     {r3-r5,lr}
        0x00003522:    4604        .F      MOV      r4,r0
        0x00003524:    2000        .       MOVS     r0,#0
        0x00003526:    9000        ..      STR      r0,[sp,#0]
        0x00003528:    2200        ."      MOVS     r2,#0
        0x0000352a:    4669        iF      MOV      r1,sp
        0x0000352c:    4620         F      MOV      r0,r4
        0x0000352e:    f7fffe6e    ..n.    BL       xQueueReceiveFromISR ; 0x320e
        0x00003532:    9800        ..      LDR      r0,[sp,#0]
        0x00003534:    bd38        8.      POP      {r3-r5,pc}
    $d
        0x00003536:    0000        ..      DCW    0
        0x00003538:    20000148    H..     DCD    536871240
    $t
    .text
    prvInsertTimerInActiveList
        0x0000353c:    b5f8        ..      PUSH     {r3-r7,lr}
        0x0000353e:    4604        .F      MOV      r4,r0
        0x00003540:    460d        .F      MOV      r5,r1
        0x00003542:    4616        .F      MOV      r6,r2
        0x00003544:    461f        .F      MOV      r7,r3
        0x00003546:    2000        .       MOVS     r0,#0
        0x00003548:    9000        ..      STR      r0,[sp,#0]
        0x0000354a:    6065        e`      STR      r5,[r4,#4]
        0x0000354c:    6124        $a      STR      r4,[r4,#0x10]
        0x0000354e:    42b5        .B      CMP      r5,r6
        0x00003550:    d80c        ..      BHI      0x356c ; prvInsertTimerInActiveList + 48
        0x00003552:    1bf0        ..      SUBS     r0,r6,r7
        0x00003554:    69a1        .i      LDR      r1,[r4,#0x18]
        0x00003556:    4288        .B      CMP      r0,r1
        0x00003558:    d302        ..      BCC      0x3560 ; prvInsertTimerInActiveList + 36
        0x0000355a:    2001        .       MOVS     r0,#1
        0x0000355c:    9000        ..      STR      r0,[sp,#0]
        0x0000355e:    e011        ..      B        0x3584 ; prvInsertTimerInActiveList + 72
        0x00003560:    1d21        !.      ADDS     r1,r4,#4
        0x00003562:    48fe        .H      LDR      r0,[pc,#1016] ; [0x395c] = 0x20000054
        0x00003564:    6800        .h      LDR      r0,[r0,#0]
        0x00003566:    f7fdfdeb    ....    BL       vListInsert ; 0x1140
        0x0000356a:    e00b        ..      B        0x3584 ; prvInsertTimerInActiveList + 72
        0x0000356c:    42be        .B      CMP      r6,r7
        0x0000356e:    d204        ..      BCS      0x357a ; prvInsertTimerInActiveList + 62
        0x00003570:    42bd        .B      CMP      r5,r7
        0x00003572:    d302        ..      BCC      0x357a ; prvInsertTimerInActiveList + 62
        0x00003574:    2001        .       MOVS     r0,#1
        0x00003576:    9000        ..      STR      r0,[sp,#0]
        0x00003578:    e004        ..      B        0x3584 ; prvInsertTimerInActiveList + 72
        0x0000357a:    1d21        !.      ADDS     r1,r4,#4
        0x0000357c:    48f8        .H      LDR      r0,[pc,#992] ; [0x3960] = 0x20000050
        0x0000357e:    6800        .h      LDR      r0,[r0,#0]
        0x00003580:    f7fdfdde    ....    BL       vListInsert ; 0x1140
        0x00003584:    9800        ..      LDR      r0,[sp,#0]
        0x00003586:    bdf8        ..      POP      {r3-r7,pc}
    xTimerGenericCommand
        0x00003588:    b5f0        ..      PUSH     {r4-r7,lr}
        0x0000358a:    b085        ..      SUB      sp,sp,#0x14
        0x0000358c:    4604        .F      MOV      r4,r0
        0x0000358e:    460d        .F      MOV      r5,r1
        0x00003590:    4616        .F      MOV      r6,r2
        0x00003592:    461f        .F      MOV      r7,r3
        0x00003594:    2000        .       MOVS     r0,#0
        0x00003596:    9003        ..      STR      r0,[sp,#0xc]
        0x00003598:    2c00        .,      CMP      r4,#0
        0x0000359a:    d102        ..      BNE      0x35a2 ; xTimerGenericCommand + 26
        0x0000359c:    b672        r.      CPSID    i
        0x0000359e:    bf00        ..      NOP      
        0x000035a0:    e7fe        ..      B        0x35a0 ; xTimerGenericCommand + 24
        0x000035a2:    48f0        .H      LDR      r0,[pc,#960] ; [0x3964] = 0x20000058
        0x000035a4:    6800        .h      LDR      r0,[r0,#0]
        0x000035a6:    2800        .(      CMP      r0,#0
        0x000035a8:    d022        ".      BEQ      0x35f0 ; xTimerGenericCommand + 104
        0x000035aa:    9500        ..      STR      r5,[sp,#0]
        0x000035ac:    9601        ..      STR      r6,[sp,#4]
        0x000035ae:    9402        ..      STR      r4,[sp,#8]
        0x000035b0:    2d06        .-      CMP      r5,#6
        0x000035b2:    da15        ..      BGE      0x35e0 ; xTimerGenericCommand + 88
        0x000035b4:    f7fefd95    ....    BL       xTaskGetSchedulerState ; 0x20e2
        0x000035b8:    2802        .(      CMP      r0,#2
        0x000035ba:    d108        ..      BNE      0x35ce ; xTimerGenericCommand + 70
        0x000035bc:    2300        .#      MOVS     r3,#0
        0x000035be:    4669        iF      MOV      r1,sp
        0x000035c0:    48e8        .H      LDR      r0,[pc,#928] ; [0x3964] = 0x20000058
        0x000035c2:    9a0a        ..      LDR      r2,[sp,#0x28]
        0x000035c4:    6800        .h      LDR      r0,[r0,#0]
        0x000035c6:    f7fff9ed    ....    BL       xQueueGenericSend ; 0x29a4
        0x000035ca:    9003        ..      STR      r0,[sp,#0xc]
        0x000035cc:    e010        ..      B        0x35f0 ; xTimerGenericCommand + 104
        0x000035ce:    2300        .#      MOVS     r3,#0
        0x000035d0:    461a        .F      MOV      r2,r3
        0x000035d2:    4669        iF      MOV      r1,sp
        0x000035d4:    48e3        .H      LDR      r0,[pc,#908] ; [0x3964] = 0x20000058
        0x000035d6:    6800        .h      LDR      r0,[r0,#0]
        0x000035d8:    f7fff9e4    ....    BL       xQueueGenericSend ; 0x29a4
        0x000035dc:    9003        ..      STR      r0,[sp,#0xc]
        0x000035de:    e007        ..      B        0x35f0 ; xTimerGenericCommand + 104
        0x000035e0:    2300        .#      MOVS     r3,#0
        0x000035e2:    463a        :F      MOV      r2,r7
        0x000035e4:    4669        iF      MOV      r1,sp
        0x000035e6:    48df        .H      LDR      r0,[pc,#892] ; [0x3964] = 0x20000058
        0x000035e8:    6800        .h      LDR      r0,[r0,#0]
        0x000035ea:    f7fffbf1    ....    BL       xQueueGenericSendFromISR ; 0x2dd0
        0x000035ee:    9003        ..      STR      r0,[sp,#0xc]
        0x000035f0:    9803        ..      LDR      r0,[sp,#0xc]
        0x000035f2:    b005        ..      ADD      sp,sp,#0x14
        0x000035f4:    bdf0        ..      POP      {r4-r7,pc}
    prvSwitchTimerLists
        0x000035f6:    b5fe        ..      PUSH     {r1-r7,lr}
        0x000035f8:    e02b        +.      B        0x3652 ; prvSwitchTimerLists + 92
        0x000035fa:    48d9        .H      LDR      r0,[pc,#868] ; [0x3960] = 0x20000050
        0x000035fc:    6800        .h      LDR      r0,[r0,#0]
        0x000035fe:    68c0        .h      LDR      r0,[r0,#0xc]
        0x00003600:    6805        .h      LDR      r5,[r0,#0]
        0x00003602:    48d7        .H      LDR      r0,[pc,#860] ; [0x3960] = 0x20000050
        0x00003604:    6800        .h      LDR      r0,[r0,#0]
        0x00003606:    68c0        .h      LDR      r0,[r0,#0xc]
        0x00003608:    68c4        .h      LDR      r4,[r0,#0xc]
        0x0000360a:    1d20         .      ADDS     r0,r4,#4
        0x0000360c:    f7fdfdb3    ....    BL       uxListRemove ; 0x1176
        0x00003610:    4620         F      MOV      r0,r4
        0x00003612:    6a61        aj      LDR      r1,[r4,#0x24]
        0x00003614:    4788        .G      BLX      r1
        0x00003616:    69e0        .i      LDR      r0,[r4,#0x1c]
        0x00003618:    2801        .(      CMP      r0,#1
        0x0000361a:    d11a        ..      BNE      0x3652 ; prvSwitchTimerLists + 92
        0x0000361c:    69a0        .i      LDR      r0,[r4,#0x18]
        0x0000361e:    1946        F.      ADDS     r6,r0,r5
        0x00003620:    42ae        .B      CMP      r6,r5
        0x00003622:    d907        ..      BLS      0x3634 ; prvSwitchTimerLists + 62
        0x00003624:    6066        f`      STR      r6,[r4,#4]
        0x00003626:    6124        $a      STR      r4,[r4,#0x10]
        0x00003628:    1d21        !.      ADDS     r1,r4,#4
        0x0000362a:    48cd        .H      LDR      r0,[pc,#820] ; [0x3960] = 0x20000050
        0x0000362c:    6800        .h      LDR      r0,[r0,#0]
        0x0000362e:    f7fdfd87    ....    BL       vListInsert ; 0x1140
        0x00003632:    e00e        ..      B        0x3652 ; prvSwitchTimerLists + 92
        0x00003634:    2000        .       MOVS     r0,#0
        0x00003636:    4603        .F      MOV      r3,r0
        0x00003638:    462a        *F      MOV      r2,r5
        0x0000363a:    4601        .F      MOV      r1,r0
        0x0000363c:    9000        ..      STR      r0,[sp,#0]
        0x0000363e:    4620         F      MOV      r0,r4
        0x00003640:    f7ffffa2    ....    BL       xTimerGenericCommand ; 0x3588
        0x00003644:    4607        .F      MOV      r7,r0
        0x00003646:    2f00        ./      CMP      r7,#0
        0x00003648:    d102        ..      BNE      0x3650 ; prvSwitchTimerLists + 90
        0x0000364a:    b672        r.      CPSID    i
        0x0000364c:    bf00        ..      NOP      
        0x0000364e:    e7fe        ..      B        0x364e ; prvSwitchTimerLists + 88
        0x00003650:    bf00        ..      NOP      
        0x00003652:    48c3        .H      LDR      r0,[pc,#780] ; [0x3960] = 0x20000050
        0x00003654:    6800        .h      LDR      r0,[r0,#0]
        0x00003656:    6800        .h      LDR      r0,[r0,#0]
        0x00003658:    2800        .(      CMP      r0,#0
        0x0000365a:    d101        ..      BNE      0x3660 ; prvSwitchTimerLists + 106
        0x0000365c:    2001        .       MOVS     r0,#1
        0x0000365e:    e000        ..      B        0x3662 ; prvSwitchTimerLists + 108
        0x00003660:    2000        .       MOVS     r0,#0
        0x00003662:    2800        .(      CMP      r0,#0
        0x00003664:    d0c9        ..      BEQ      0x35fa ; prvSwitchTimerLists + 4
        0x00003666:    48be        .H      LDR      r0,[pc,#760] ; [0x3960] = 0x20000050
        0x00003668:    6800        .h      LDR      r0,[r0,#0]
        0x0000366a:    9001        ..      STR      r0,[sp,#4]
        0x0000366c:    48bb        .H      LDR      r0,[pc,#748] ; [0x395c] = 0x20000054
        0x0000366e:    6800        .h      LDR      r0,[r0,#0]
        0x00003670:    49bb        .I      LDR      r1,[pc,#748] ; [0x3960] = 0x20000050
        0x00003672:    6008        .`      STR      r0,[r1,#0]
        0x00003674:    49b9        .I      LDR      r1,[pc,#740] ; [0x395c] = 0x20000054
        0x00003676:    9801        ..      LDR      r0,[sp,#4]
        0x00003678:    6008        .`      STR      r0,[r1,#0]
        0x0000367a:    bdfe        ..      POP      {r1-r7,pc}
    prvSampleTimeNow
        0x0000367c:    b570        p.      PUSH     {r4-r6,lr}
        0x0000367e:    4604        .F      MOV      r4,r0
        0x00003680:    f7fefb09    ....    BL       xTaskGetTickCount ; 0x1c96
        0x00003684:    4605        .F      MOV      r5,r0
        0x00003686:    48b8        .H      LDR      r0,[pc,#736] ; [0x3968] = 0x20000060
        0x00003688:    6800        .h      LDR      r0,[r0,#0]
        0x0000368a:    4285        .B      CMP      r5,r0
        0x0000368c:    d204        ..      BCS      0x3698 ; prvSampleTimeNow + 28
        0x0000368e:    f7ffffb2    ....    BL       prvSwitchTimerLists ; 0x35f6
        0x00003692:    2001        .       MOVS     r0,#1
        0x00003694:    6020         `      STR      r0,[r4,#0]
        0x00003696:    e001        ..      B        0x369c ; prvSampleTimeNow + 32
        0x00003698:    2000        .       MOVS     r0,#0
        0x0000369a:    6020         `      STR      r0,[r4,#0]
        0x0000369c:    48b2        .H      LDR      r0,[pc,#712] ; [0x3968] = 0x20000060
        0x0000369e:    6005        .`      STR      r5,[r0,#0]
        0x000036a0:    4628        (F      MOV      r0,r5
        0x000036a2:    bd70        p.      POP      {r4-r6,pc}
    prvProcessReceivedCommands
        0x000036a4:    b570        p.      PUSH     {r4-r6,lr}
        0x000036a6:    b086        ..      SUB      sp,sp,#0x18
        0x000036a8:    e060        `.      B        0x376c ; prvProcessReceivedCommands + 200
        0x000036aa:    9803        ..      LDR      r0,[sp,#0xc]
        0x000036ac:    2800        .(      CMP      r0,#0
        0x000036ae:    db5d        ].      BLT      0x376c ; prvProcessReceivedCommands + 200
        0x000036b0:    9c05        ..      LDR      r4,[sp,#0x14]
        0x000036b2:    6960        `i      LDR      r0,[r4,#0x14]
        0x000036b4:    2800        .(      CMP      r0,#0
        0x000036b6:    d101        ..      BNE      0x36bc ; prvProcessReceivedCommands + 24
        0x000036b8:    2001        .       MOVS     r0,#1
        0x000036ba:    e000        ..      B        0x36be ; prvProcessReceivedCommands + 26
        0x000036bc:    2000        .       MOVS     r0,#0
        0x000036be:    2800        .(      CMP      r0,#0
        0x000036c0:    d102        ..      BNE      0x36c8 ; prvProcessReceivedCommands + 36
        0x000036c2:    1d20         .      ADDS     r0,r4,#4
        0x000036c4:    f7fdfd57    ..W.    BL       uxListRemove ; 0x1176
        0x000036c8:    a802        ..      ADD      r0,sp,#8
        0x000036ca:    f7ffffd7    ....    BL       prvSampleTimeNow ; 0x367c
        0x000036ce:    4605        .F      MOV      r5,r0
        0x000036d0:    9803        ..      LDR      r0,[sp,#0xc]
        0x000036d2:    0003        ..      MOVS     r3,r0
        0x000036d4:    f000fba4    ....    BL       __ARM_common_switch8 ; 0x3e20
    $d
        0x000036d8:    08060a0a    ....    DCD    134613514
        0x000036dc:    07442e2c    ,.D.    DCD    121908780
        0x000036e0:    482f2d09    .-/H    DCD    1211051273
    $t
        0x000036e4:    bf00        ..      NOP      
        0x000036e6:    bf00        ..      NOP      
        0x000036e8:    bf00        ..      NOP      
        0x000036ea:    bf00        ..      NOP      
        0x000036ec:    9804        ..      LDR      r0,[sp,#0x10]
        0x000036ee:    69a2        .i      LDR      r2,[r4,#0x18]
        0x000036f0:    1881        ..      ADDS     r1,r0,r2
        0x000036f2:    4603        .F      MOV      r3,r0
        0x000036f4:    462a        *F      MOV      r2,r5
        0x000036f6:    4620         F      MOV      r0,r4
        0x000036f8:    f7ffff20    .. .    BL       prvInsertTimerInActiveList ; 0x353c
        0x000036fc:    2800        .(      CMP      r0,#0
        0x000036fe:    d016        ..      BEQ      0x372e ; prvProcessReceivedCommands + 138
        0x00003700:    4620         F      MOV      r0,r4
        0x00003702:    6a61        aj      LDR      r1,[r4,#0x24]
        0x00003704:    4788        .G      BLX      r1
        0x00003706:    69e0        .i      LDR      r0,[r4,#0x1c]
        0x00003708:    2801        .(      CMP      r0,#1
        0x0000370a:    d110        ..      BNE      0x372e ; prvProcessReceivedCommands + 138
        0x0000370c:    2000        .       MOVS     r0,#0
        0x0000370e:    9000        ..      STR      r0,[sp,#0]
        0x00003710:    9804        ..      LDR      r0,[sp,#0x10]
        0x00003712:    69a1        .i      LDR      r1,[r4,#0x18]
        0x00003714:    1842        B.      ADDS     r2,r0,r1
        0x00003716:    2300        .#      MOVS     r3,#0
        0x00003718:    4619        .F      MOV      r1,r3
        0x0000371a:    4620         F      MOV      r0,r4
        0x0000371c:    f7ffff34    ..4.    BL       xTimerGenericCommand ; 0x3588
        0x00003720:    4606        .F      MOV      r6,r0
        0x00003722:    2e00        ..      CMP      r6,#0
        0x00003724:    d102        ..      BNE      0x372c ; prvProcessReceivedCommands + 136
        0x00003726:    b672        r.      CPSID    i
        0x00003728:    bf00        ..      NOP      
        0x0000372a:    e7fe        ..      B        0x372a ; prvProcessReceivedCommands + 134
        0x0000372c:    bf00        ..      NOP      
        0x0000372e:    e01c        ..      B        0x376a ; prvProcessReceivedCommands + 198
        0x00003730:    bf00        ..      NOP      
        0x00003732:    e01a        ..      B        0x376a ; prvProcessReceivedCommands + 198
        0x00003734:    bf00        ..      NOP      
        0x00003736:    9804        ..      LDR      r0,[sp,#0x10]
        0x00003738:    61a0        .a      STR      r0,[r4,#0x18]
        0x0000373a:    69a0        .i      LDR      r0,[r4,#0x18]
        0x0000373c:    2800        .(      CMP      r0,#0
        0x0000373e:    d001        ..      BEQ      0x3744 ; prvProcessReceivedCommands + 160
        0x00003740:    2001        .       MOVS     r0,#1
        0x00003742:    e000        ..      B        0x3746 ; prvProcessReceivedCommands + 162
        0x00003744:    2000        .       MOVS     r0,#0
        0x00003746:    2800        .(      CMP      r0,#0
        0x00003748:    d102        ..      BNE      0x3750 ; prvProcessReceivedCommands + 172
        0x0000374a:    b672        r.      CPSID    i
        0x0000374c:    bf00        ..      NOP      
        0x0000374e:    e7fe        ..      B        0x374e ; prvProcessReceivedCommands + 170
        0x00003750:    69a0        .i      LDR      r0,[r4,#0x18]
        0x00003752:    1941        A.      ADDS     r1,r0,r5
        0x00003754:    462b        +F      MOV      r3,r5
        0x00003756:    462a        *F      MOV      r2,r5
        0x00003758:    4620         F      MOV      r0,r4
        0x0000375a:    f7fffeef    ....    BL       prvInsertTimerInActiveList ; 0x353c
        0x0000375e:    e004        ..      B        0x376a ; prvProcessReceivedCommands + 198
        0x00003760:    4620         F      MOV      r0,r4
        0x00003762:    f000fa82    ....    BL       vPortFree ; 0x3c6a
        0x00003766:    e000        ..      B        0x376a ; prvProcessReceivedCommands + 198
        0x00003768:    bf00        ..      NOP      
        0x0000376a:    bf00        ..      NOP      
        0x0000376c:    2200        ."      MOVS     r2,#0
        0x0000376e:    a903        ..      ADD      r1,sp,#0xc
        0x00003770:    487c        |H      LDR      r0,[pc,#496] ; [0x3964] = 0x20000058
        0x00003772:    6800        .h      LDR      r0,[r0,#0]
        0x00003774:    f7fffc11    ....    BL       xQueueReceive ; 0x2f9a
        0x00003778:    2800        .(      CMP      r0,#0
        0x0000377a:    d196        ..      BNE      0x36aa ; prvProcessReceivedCommands + 6
        0x0000377c:    b006        ..      ADD      sp,sp,#0x18
        0x0000377e:    bd70        p.      POP      {r4-r6,pc}
    prvProcessExpiredTimer
        0x00003780:    b5f8        ..      PUSH     {r3-r7,lr}
        0x00003782:    4605        .F      MOV      r5,r0
        0x00003784:    460f        .F      MOV      r7,r1
        0x00003786:    4876        vH      LDR      r0,[pc,#472] ; [0x3960] = 0x20000050
        0x00003788:    6800        .h      LDR      r0,[r0,#0]
        0x0000378a:    68c0        .h      LDR      r0,[r0,#0xc]
        0x0000378c:    68c4        .h      LDR      r4,[r0,#0xc]
        0x0000378e:    1d20         .      ADDS     r0,r4,#4
        0x00003790:    f7fdfcf1    ....    BL       uxListRemove ; 0x1176
        0x00003794:    69e0        .i      LDR      r0,[r4,#0x1c]
        0x00003796:    2801        .(      CMP      r0,#1
        0x00003798:    d117        ..      BNE      0x37ca ; prvProcessExpiredTimer + 74
        0x0000379a:    69a0        .i      LDR      r0,[r4,#0x18]
        0x0000379c:    1941        A.      ADDS     r1,r0,r5
        0x0000379e:    462b        +F      MOV      r3,r5
        0x000037a0:    463a        :F      MOV      r2,r7
        0x000037a2:    4620         F      MOV      r0,r4
        0x000037a4:    f7fffeca    ....    BL       prvInsertTimerInActiveList ; 0x353c
        0x000037a8:    2800        .(      CMP      r0,#0
        0x000037aa:    d00e        ..      BEQ      0x37ca ; prvProcessExpiredTimer + 74
        0x000037ac:    2000        .       MOVS     r0,#0
        0x000037ae:    4603        .F      MOV      r3,r0
        0x000037b0:    462a        *F      MOV      r2,r5
        0x000037b2:    4601        .F      MOV      r1,r0
        0x000037b4:    9000        ..      STR      r0,[sp,#0]
        0x000037b6:    4620         F      MOV      r0,r4
        0x000037b8:    f7fffee6    ....    BL       xTimerGenericCommand ; 0x3588
        0x000037bc:    4606        .F      MOV      r6,r0
        0x000037be:    2e00        ..      CMP      r6,#0
        0x000037c0:    d102        ..      BNE      0x37c8 ; prvProcessExpiredTimer + 72
        0x000037c2:    b672        r.      CPSID    i
        0x000037c4:    bf00        ..      NOP      
        0x000037c6:    e7fe        ..      B        0x37c6 ; prvProcessExpiredTimer + 70
        0x000037c8:    bf00        ..      NOP      
        0x000037ca:    4620         F      MOV      r0,r4
        0x000037cc:    6a61        aj      LDR      r1,[r4,#0x24]
        0x000037ce:    4788        .G      BLX      r1
        0x000037d0:    bdf8        ..      POP      {r3-r7,pc}
    prvProcessTimerOrBlockTask
        0x000037d2:    b5f8        ..      PUSH     {r3-r7,lr}
        0x000037d4:    4605        .F      MOV      r5,r0
        0x000037d6:    460c        .F      MOV      r4,r1
        0x000037d8:    f7fdff93    ....    BL       vTaskSuspendAll ; 0x1702
        0x000037dc:    4668        hF      MOV      r0,sp
        0x000037de:    f7ffff4d    ..M.    BL       prvSampleTimeNow ; 0x367c
        0x000037e2:    4606        .F      MOV      r6,r0
        0x000037e4:    9800        ..      LDR      r0,[sp,#0]
        0x000037e6:    2800        .(      CMP      r0,#0
        0x000037e8:    d122        ".      BNE      0x3830 ; prvProcessTimerOrBlockTask + 94
        0x000037ea:    2c00        .,      CMP      r4,#0
        0x000037ec:    d108        ..      BNE      0x3800 ; prvProcessTimerOrBlockTask + 46
        0x000037ee:    42b5        .B      CMP      r5,r6
        0x000037f0:    d806        ..      BHI      0x3800 ; prvProcessTimerOrBlockTask + 46
        0x000037f2:    f7fdfec5    ....    BL       xTaskResumeAll ; 0x1580
        0x000037f6:    4631        1F      MOV      r1,r6
        0x000037f8:    4628        (F      MOV      r0,r5
        0x000037fa:    f7ffffc1    ....    BL       prvProcessExpiredTimer ; 0x3780
        0x000037fe:    e019        ..      B        0x3834 ; prvProcessTimerOrBlockTask + 98
        0x00003800:    2c00        .,      CMP      r4,#0
        0x00003802:    d008        ..      BEQ      0x3816 ; prvProcessTimerOrBlockTask + 68
        0x00003804:    4855        UH      LDR      r0,[pc,#340] ; [0x395c] = 0x20000054
        0x00003806:    6800        .h      LDR      r0,[r0,#0]
        0x00003808:    6800        .h      LDR      r0,[r0,#0]
        0x0000380a:    2800        .(      CMP      r0,#0
        0x0000380c:    d101        ..      BNE      0x3812 ; prvProcessTimerOrBlockTask + 64
        0x0000380e:    2001        .       MOVS     r0,#1
        0x00003810:    e000        ..      B        0x3814 ; prvProcessTimerOrBlockTask + 66
        0x00003812:    2000        .       MOVS     r0,#0
        0x00003814:    4604        .F      MOV      r4,r0
        0x00003816:    1ba9        ..      SUBS     r1,r5,r6
        0x00003818:    4622        "F      MOV      r2,r4
        0x0000381a:    4852        RH      LDR      r0,[pc,#328] ; [0x3964] = 0x20000058
        0x0000381c:    6800        .h      LDR      r0,[r0,#0]
        0x0000381e:    f7fffe17    ....    BL       vQueueWaitForMessageRestricted ; 0x3450
        0x00003822:    f7fdfead    ....    BL       xTaskResumeAll ; 0x1580
        0x00003826:    2800        .(      CMP      r0,#0
        0x00003828:    d104        ..      BNE      0x3834 ; prvProcessTimerOrBlockTask + 98
        0x0000382a:    f000f973    ..s.    BL       vPortYield ; 0x3b14
        0x0000382e:    e001        ..      B        0x3834 ; prvProcessTimerOrBlockTask + 98
        0x00003830:    f7fdfea6    ....    BL       xTaskResumeAll ; 0x1580
        0x00003834:    bdf8        ..      POP      {r3-r7,pc}
    prvGetNextExpireTime
        0x00003836:    4601        .F      MOV      r1,r0
        0x00003838:    4a49        IJ      LDR      r2,[pc,#292] ; [0x3960] = 0x20000050
        0x0000383a:    6812        .h      LDR      r2,[r2,#0]
        0x0000383c:    6812        .h      LDR      r2,[r2,#0]
        0x0000383e:    2a00        .*      CMP      r2,#0
        0x00003840:    d101        ..      BNE      0x3846 ; prvGetNextExpireTime + 16
        0x00003842:    2201        ."      MOVS     r2,#1
        0x00003844:    e000        ..      B        0x3848 ; prvGetNextExpireTime + 18
        0x00003846:    2200        ."      MOVS     r2,#0
        0x00003848:    600a        .`      STR      r2,[r1,#0]
        0x0000384a:    680a        .h      LDR      r2,[r1,#0]
        0x0000384c:    2a00        .*      CMP      r2,#0
        0x0000384e:    d104        ..      BNE      0x385a ; prvGetNextExpireTime + 36
        0x00003850:    4a43        CJ      LDR      r2,[pc,#268] ; [0x3960] = 0x20000050
        0x00003852:    6812        .h      LDR      r2,[r2,#0]
        0x00003854:    68d2        .h      LDR      r2,[r2,#0xc]
        0x00003856:    6810        .h      LDR      r0,[r2,#0]
        0x00003858:    e000        ..      B        0x385c ; prvGetNextExpireTime + 38
        0x0000385a:    2000        .       MOVS     r0,#0
        0x0000385c:    4770        pG      BX       lr
    prvTimerTask
        0x0000385e:    b508        ..      PUSH     {r3,lr}
        0x00003860:    bf00        ..      NOP      
        0x00003862:    4668        hF      MOV      r0,sp
        0x00003864:    f7ffffe7    ....    BL       prvGetNextExpireTime ; 0x3836
        0x00003868:    4604        .F      MOV      r4,r0
        0x0000386a:    4620         F      MOV      r0,r4
        0x0000386c:    9900        ..      LDR      r1,[sp,#0]
        0x0000386e:    f7ffffb0    ....    BL       prvProcessTimerOrBlockTask ; 0x37d2
        0x00003872:    f7ffff17    ....    BL       prvProcessReceivedCommands ; 0x36a4
        0x00003876:    e7f4        ..      B        0x3862 ; prvTimerTask + 4
    prvCheckForValidListAndQueue
        0x00003878:    b510        ..      PUSH     {r4,lr}
        0x0000387a:    f000f954    ..T.    BL       vPortEnterCritical ; 0x3b26
        0x0000387e:    4839        9H      LDR      r0,[pc,#228] ; [0x3964] = 0x20000058
        0x00003880:    6800        .h      LDR      r0,[r0,#0]
        0x00003882:    2800        .(      CMP      r0,#0
        0x00003884:    d11b        ..      BNE      0x38be ; prvCheckForValidListAndQueue + 70
        0x00003886:    4839        9H      LDR      r0,[pc,#228] ; [0x396c] = 0x20000188
        0x00003888:    f7fdfc3e    ..>.    BL       vListInitialise ; 0x1108
        0x0000388c:    4838        8H      LDR      r0,[pc,#224] ; [0x3970] = 0x2000019c
        0x0000388e:    f7fdfc3b    ..;.    BL       vListInitialise ; 0x1108
        0x00003892:    4836        6H      LDR      r0,[pc,#216] ; [0x396c] = 0x20000188
        0x00003894:    4932        2I      LDR      r1,[pc,#200] ; [0x3960] = 0x20000050
        0x00003896:    6008        .`      STR      r0,[r1,#0]
        0x00003898:    4835        5H      LDR      r0,[pc,#212] ; [0x3970] = 0x2000019c
        0x0000389a:    4930        0I      LDR      r1,[pc,#192] ; [0x395c] = 0x20000054
        0x0000389c:    6008        .`      STR      r0,[r1,#0]
        0x0000389e:    2200        ."      MOVS     r2,#0
        0x000038a0:    210c        .!      MOVS     r1,#0xc
        0x000038a2:    200a        .       MOVS     r0,#0xa
        0x000038a4:    f7feff75    ..u.    BL       xQueueGenericCreate ; 0x2792
        0x000038a8:    492e        .I      LDR      r1,[pc,#184] ; [0x3964] = 0x20000058
        0x000038aa:    6008        .`      STR      r0,[r1,#0]
        0x000038ac:    4608        .F      MOV      r0,r1
        0x000038ae:    6800        .h      LDR      r0,[r0,#0]
        0x000038b0:    2800        .(      CMP      r0,#0
        0x000038b2:    d004        ..      BEQ      0x38be ; prvCheckForValidListAndQueue + 70
        0x000038b4:    a12f        /.      ADR      r1,{pc}+0xc0 ; 0x3974
        0x000038b6:    482b        +H      LDR      r0,[pc,#172] ; [0x3964] = 0x20000058
        0x000038b8:    6800        .h      LDR      r0,[r0,#0]
        0x000038ba:    f7fffda2    ....    BL       vQueueAddToRegistry ; 0x3402
        0x000038be:    f000f93d    ..=.    BL       vPortExitCritical ; 0x3b3c
        0x000038c2:    bd10        ..      POP      {r4,pc}
    xTimerCreateTimerTask
        0x000038c4:    b51c        ..      PUSH     {r2-r4,lr}
        0x000038c6:    2400        .$      MOVS     r4,#0
        0x000038c8:    f7ffffd6    ....    BL       prvCheckForValidListAndQueue ; 0x3878
        0x000038cc:    4825        %H      LDR      r0,[pc,#148] ; [0x3964] = 0x20000058
        0x000038ce:    6800        .h      LDR      r0,[r0,#0]
        0x000038d0:    2800        .(      CMP      r0,#0
        0x000038d2:    d00a        ..      BEQ      0x38ea ; xTimerCreateTimerTask + 38
        0x000038d4:    4829        )H      LDR      r0,[pc,#164] ; [0x397c] = 0x2000005c
        0x000038d6:    2102        .!      MOVS     r1,#2
        0x000038d8:    2300        .#      MOVS     r3,#0
        0x000038da:    2264        d"      MOVS     r2,#0x64
        0x000038dc:    9100        ..      STR      r1,[sp,#0]
        0x000038de:    9001        ..      STR      r0,[sp,#4]
        0x000038e0:    a127        '.      ADR      r1,{pc}+0xa0 ; 0x3980
        0x000038e2:    4829        )H      LDR      r0,[pc,#164] ; [0x3988] = 0x385f
        0x000038e4:    f7fdfd24    ..$.    BL       xTaskCreate ; 0x1330
        0x000038e8:    4604        .F      MOV      r4,r0
        0x000038ea:    2c00        .,      CMP      r4,#0
        0x000038ec:    d102        ..      BNE      0x38f4 ; xTimerCreateTimerTask + 48
        0x000038ee:    b672        r.      CPSID    i
        0x000038f0:    bf00        ..      NOP      
        0x000038f2:    e7fe        ..      B        0x38f2 ; xTimerCreateTimerTask + 46
        0x000038f4:    4620         F      MOV      r0,r4
        0x000038f6:    bd1c        ..      POP      {r2-r4,pc}
    prvInitialiseNewTimer
        0x000038f8:    b5ff        ..      PUSH     {r0-r7,lr}
        0x000038fa:    b081        ..      SUB      sp,sp,#4
        0x000038fc:    4606        .F      MOV      r6,r0
        0x000038fe:    460d        .F      MOV      r5,r1
        0x00003900:    4617        .F      MOV      r7,r2
        0x00003902:    9c0b        ..      LDR      r4,[sp,#0x2c]
        0x00003904:    2d00        .-      CMP      r5,#0
        0x00003906:    d001        ..      BEQ      0x390c ; prvInitialiseNewTimer + 20
        0x00003908:    2001        .       MOVS     r0,#1
        0x0000390a:    e000        ..      B        0x390e ; prvInitialiseNewTimer + 22
        0x0000390c:    2000        .       MOVS     r0,#0
        0x0000390e:    2800        .(      CMP      r0,#0
        0x00003910:    d102        ..      BNE      0x3918 ; prvInitialiseNewTimer + 32
        0x00003912:    b672        r.      CPSID    i
        0x00003914:    bf00        ..      NOP      
        0x00003916:    e7fe        ..      B        0x3916 ; prvInitialiseNewTimer + 30
        0x00003918:    2c00        .,      CMP      r4,#0
        0x0000391a:    d00b        ..      BEQ      0x3934 ; prvInitialiseNewTimer + 60
        0x0000391c:    f7ffffac    ....    BL       prvCheckForValidListAndQueue ; 0x3878
        0x00003920:    6026        &`      STR      r6,[r4,#0]
        0x00003922:    61a5        .a      STR      r5,[r4,#0x18]
        0x00003924:    61e7        .a      STR      r7,[r4,#0x1c]
        0x00003926:    9804        ..      LDR      r0,[sp,#0x10]
        0x00003928:    6220         b      STR      r0,[r4,#0x20]
        0x0000392a:    980a        ..      LDR      r0,[sp,#0x28]
        0x0000392c:    6260        `b      STR      r0,[r4,#0x24]
        0x0000392e:    1d20         .      ADDS     r0,r4,#4
        0x00003930:    f7fdfbf7    ....    BL       vListInitialiseItem ; 0x1122
        0x00003934:    b005        ..      ADD      sp,sp,#0x14
        0x00003936:    bdf0        ..      POP      {r4-r7,pc}
    xTimerCreate
        0x00003938:    b5ff        ..      PUSH     {r0-r7,lr}
        0x0000393a:    b083        ..      SUB      sp,sp,#0xc
        0x0000393c:    4605        .F      MOV      r5,r0
        0x0000393e:    460e        .F      MOV      r6,r1
        0x00003940:    9f0c        ..      LDR      r7,[sp,#0x30]
        0x00003942:    202c        ,       MOVS     r0,#0x2c
        0x00003944:    f000f939    ..9.    BL       pvPortMalloc ; 0x3bba
        0x00003948:    4604        .F      MOV      r4,r0
        0x0000394a:    2c00        .,      CMP      r4,#0
        0x0000394c:    d020         .      BEQ      0x3990 ; xTimerCreate + 88
        0x0000394e:    9700        ..      STR      r7,[sp,#0]
        0x00003950:    9401        ..      STR      r4,[sp,#4]
        0x00003952:    4631        1F      MOV      r1,r6
        0x00003954:    4628        (F      MOV      r0,r5
        0x00003956:    9b06        ..      LDR      r3,[sp,#0x18]
        0x00003958:    9a05        ..      LDR      r2,[sp,#0x14]
        0x0000395a:    e017        ..      B        0x398c ; xTimerCreate + 84
    $d
        0x0000395c:    20000054    T..     DCD    536870996
        0x00003960:    20000050    P..     DCD    536870992
        0x00003964:    20000058    X..     DCD    536871000
        0x00003968:    20000060    `..     DCD    536871008
        0x0000396c:    20000188    ...     DCD    536871304
        0x00003970:    2000019c    ...     DCD    536871324
        0x00003974:    51726d54    TmrQ    DCD    1366453588
        0x00003978:    00000000    ....    DCD    0
        0x0000397c:    2000005c    \..     DCD    536871004
        0x00003980:    20726d54    Tmr     DCD    544370004
        0x00003984:    00637653    Svc.    DCD    6518355
        0x00003988:    0000385f    _8..    DCD    14431
    $t
        0x0000398c:    f7ffffb4    ....    BL       prvInitialiseNewTimer ; 0x38f8
        0x00003990:    4620         F      MOV      r0,r4
        0x00003992:    b007        ..      ADD      sp,sp,#0x1c
        0x00003994:    bdf0        ..      POP      {r4-r7,pc}
    xTimerGetTimerDaemonTaskHandle
        0x00003996:    4833        3H      LDR      r0,[pc,#204] ; [0x3a64] = 0x2000005c
        0x00003998:    6800        .h      LDR      r0,[r0,#0]
        0x0000399a:    2800        .(      CMP      r0,#0
        0x0000399c:    d001        ..      BEQ      0x39a2 ; xTimerGetTimerDaemonTaskHandle + 12
        0x0000399e:    2001        .       MOVS     r0,#1
        0x000039a0:    e000        ..      B        0x39a4 ; xTimerGetTimerDaemonTaskHandle + 14
        0x000039a2:    2000        .       MOVS     r0,#0
        0x000039a4:    2800        .(      CMP      r0,#0
        0x000039a6:    d102        ..      BNE      0x39ae ; xTimerGetTimerDaemonTaskHandle + 24
        0x000039a8:    b672        r.      CPSID    i
        0x000039aa:    bf00        ..      NOP      
        0x000039ac:    e7fe        ..      B        0x39ac ; xTimerGetTimerDaemonTaskHandle + 22
        0x000039ae:    482d        -H      LDR      r0,[pc,#180] ; [0x3a64] = 0x2000005c
        0x000039b0:    6800        .h      LDR      r0,[r0,#0]
        0x000039b2:    4770        pG      BX       lr
    xTimerGetPeriod
        0x000039b4:    4601        .F      MOV      r1,r0
        0x000039b6:    460a        .F      MOV      r2,r1
        0x000039b8:    2900        .)      CMP      r1,#0
        0x000039ba:    d102        ..      BNE      0x39c2 ; xTimerGetPeriod + 14
        0x000039bc:    b672        r.      CPSID    i
        0x000039be:    bf00        ..      NOP      
        0x000039c0:    e7fe        ..      B        0x39c0 ; xTimerGetPeriod + 12
        0x000039c2:    6990        .i      LDR      r0,[r2,#0x18]
        0x000039c4:    4770        pG      BX       lr
    xTimerGetExpiryTime
        0x000039c6:    4601        .F      MOV      r1,r0
        0x000039c8:    460a        .F      MOV      r2,r1
        0x000039ca:    2900        .)      CMP      r1,#0
        0x000039cc:    d102        ..      BNE      0x39d4 ; xTimerGetExpiryTime + 14
        0x000039ce:    b672        r.      CPSID    i
        0x000039d0:    bf00        ..      NOP      
        0x000039d2:    e7fe        ..      B        0x39d2 ; xTimerGetExpiryTime + 12
        0x000039d4:    6850        Ph      LDR      r0,[r2,#4]
        0x000039d6:    4770        pG      BX       lr
    pcTimerGetName
        0x000039d8:    4601        .F      MOV      r1,r0
        0x000039da:    460a        .F      MOV      r2,r1
        0x000039dc:    2900        .)      CMP      r1,#0
        0x000039de:    d102        ..      BNE      0x39e6 ; pcTimerGetName + 14
        0x000039e0:    b672        r.      CPSID    i
        0x000039e2:    bf00        ..      NOP      
        0x000039e4:    e7fe        ..      B        0x39e4 ; pcTimerGetName + 12
        0x000039e6:    6810        .h      LDR      r0,[r2,#0]
        0x000039e8:    4770        pG      BX       lr
    xTimerIsTimerActive
        0x000039ea:    b570        p.      PUSH     {r4-r6,lr}
        0x000039ec:    4604        .F      MOV      r4,r0
        0x000039ee:    4626        &F      MOV      r6,r4
        0x000039f0:    2c00        .,      CMP      r4,#0
        0x000039f2:    d102        ..      BNE      0x39fa ; xTimerIsTimerActive + 16
        0x000039f4:    b672        r.      CPSID    i
        0x000039f6:    bf00        ..      NOP      
        0x000039f8:    e7fe        ..      B        0x39f8 ; xTimerIsTimerActive + 14
        0x000039fa:    f000f894    ....    BL       vPortEnterCritical ; 0x3b26
        0x000039fe:    6970        pi      LDR      r0,[r6,#0x14]
        0x00003a00:    2800        .(      CMP      r0,#0
        0x00003a02:    d101        ..      BNE      0x3a08 ; xTimerIsTimerActive + 30
        0x00003a04:    2001        .       MOVS     r0,#1
        0x00003a06:    e000        ..      B        0x3a0a ; xTimerIsTimerActive + 32
        0x00003a08:    2000        .       MOVS     r0,#0
        0x00003a0a:    2801        .(      CMP      r0,#1
        0x00003a0c:    d101        ..      BNE      0x3a12 ; xTimerIsTimerActive + 40
        0x00003a0e:    2500        .%      MOVS     r5,#0
        0x00003a10:    e000        ..      B        0x3a14 ; xTimerIsTimerActive + 42
        0x00003a12:    2501        .%      MOVS     r5,#1
        0x00003a14:    f000f892    ....    BL       vPortExitCritical ; 0x3b3c
        0x00003a18:    4628        (F      MOV      r0,r5
        0x00003a1a:    bd70        p.      POP      {r4-r6,pc}
    pvTimerGetTimerID
        0x00003a1c:    b570        p.      PUSH     {r4-r6,lr}
        0x00003a1e:    4604        .F      MOV      r4,r0
        0x00003a20:    4626        &F      MOV      r6,r4
        0x00003a22:    2c00        .,      CMP      r4,#0
        0x00003a24:    d102        ..      BNE      0x3a2c ; pvTimerGetTimerID + 16
        0x00003a26:    b672        r.      CPSID    i
        0x00003a28:    bf00        ..      NOP      
        0x00003a2a:    e7fe        ..      B        0x3a2a ; pvTimerGetTimerID + 14
        0x00003a2c:    f000f87b    ..{.    BL       vPortEnterCritical ; 0x3b26
        0x00003a30:    6a35        5j      LDR      r5,[r6,#0x20]
        0x00003a32:    f000f883    ....    BL       vPortExitCritical ; 0x3b3c
        0x00003a36:    4628        (F      MOV      r0,r5
        0x00003a38:    bd70        p.      POP      {r4-r6,pc}
    vTimerSetTimerID
        0x00003a3a:    b570        p.      PUSH     {r4-r6,lr}
        0x00003a3c:    4604        .F      MOV      r4,r0
        0x00003a3e:    460d        .F      MOV      r5,r1
        0x00003a40:    4626        &F      MOV      r6,r4
        0x00003a42:    2c00        .,      CMP      r4,#0
        0x00003a44:    d102        ..      BNE      0x3a4c ; vTimerSetTimerID + 18
        0x00003a46:    b672        r.      CPSID    i
        0x00003a48:    bf00        ..      NOP      
        0x00003a4a:    e7fe        ..      B        0x3a4a ; vTimerSetTimerID + 16
        0x00003a4c:    f000f86b    ..k.    BL       vPortEnterCritical ; 0x3b26
        0x00003a50:    6235        5b      STR      r5,[r6,#0x20]
        0x00003a52:    f000f873    ..s.    BL       vPortExitCritical ; 0x3b3c
        0x00003a56:    bd70        p.      POP      {r4-r6,pc}
    uxTimerGetTimerNumber
        0x00003a58:    4601        .F      MOV      r1,r0
        0x00003a5a:    6a88        .j      LDR      r0,[r1,#0x28]
        0x00003a5c:    4770        pG      BX       lr
    vTimerSetTimerNumber
        0x00003a5e:    6281        .b      STR      r1,[r0,#0x28]
        0x00003a60:    4770        pG      BX       lr
    $d
        0x00003a62:    0000        ..      DCW    0
        0x00003a64:    2000005c    \..     DCD    536871004
    $t
    .text
    prvTaskExitError
        0x00003a68:    4845        EH      LDR      r0,[pc,#276] ; [0x3b80] = 0x20000064
        0x00003a6a:    6800        .h      LDR      r0,[r0,#0]
        0x00003a6c:    1c40        @.      ADDS     r0,r0,#1
        0x00003a6e:    2800        .(      CMP      r0,#0
        0x00003a70:    d101        ..      BNE      0x3a76 ; prvTaskExitError + 14
        0x00003a72:    2001        .       MOVS     r0,#1
        0x00003a74:    e000        ..      B        0x3a78 ; prvTaskExitError + 16
        0x00003a76:    2000        .       MOVS     r0,#0
        0x00003a78:    2800        .(      CMP      r0,#0
        0x00003a7a:    d102        ..      BNE      0x3a82 ; prvTaskExitError + 26
        0x00003a7c:    b672        r.      CPSID    i
        0x00003a7e:    bf00        ..      NOP      
        0x00003a80:    e7fe        ..      B        0x3a80 ; prvTaskExitError + 24
        0x00003a82:    b672        r.      CPSID    i
        0x00003a84:    bf00        ..      NOP      
        0x00003a86:    e7fe        ..      B        0x3a86 ; prvTaskExitError + 30
    pxPortInitialiseStack
        0x00003a88:    1f00        ..      SUBS     r0,r0,#4
        0x00003a8a:    2301        .#      MOVS     r3,#1
        0x00003a8c:    061b        ..      LSLS     r3,r3,#24
        0x00003a8e:    6003        .`      STR      r3,[r0,#0]
        0x00003a90:    1f00        ..      SUBS     r0,r0,#4
        0x00003a92:    6001        .`      STR      r1,[r0,#0]
        0x00003a94:    1f00        ..      SUBS     r0,r0,#4
        0x00003a96:    4b3b        ;K      LDR      r3,[pc,#236] ; [0x3b84] = 0x3a69
        0x00003a98:    6003        .`      STR      r3,[r0,#0]
        0x00003a9a:    3814        .8      SUBS     r0,r0,#0x14
        0x00003a9c:    6002        .`      STR      r2,[r0,#0]
        0x00003a9e:    3820         8      SUBS     r0,r0,#0x20
        0x00003aa0:    4770        pG      BX       lr
    SVC_Handler
        0x00003aa2:    4770        pG      BX       lr
    prvSetupTimerInterrupt
        0x00003aa4:    b510        ..      PUSH     {r4,lr}
        0x00003aa6:    2000        .       MOVS     r0,#0
        0x00003aa8:    4937        7I      LDR      r1,[pc,#220] ; [0x3b88] = 0xe000e000
        0x00003aaa:    6108        .a      STR      r0,[r1,#0x10]
        0x00003aac:    6188        .a      STR      r0,[r1,#0x18]
        0x00003aae:    217d        }!      MOVS     r1,#0x7d
        0x00003ab0:    00c9        ..      LSLS     r1,r1,#3
        0x00003ab2:    4836        6H      LDR      r0,[pc,#216] ; [0x3b8c] = 0x20000000
        0x00003ab4:    6800        .h      LDR      r0,[r0,#0]
        0x00003ab6:    f000f905    ....    BL       __aeabi_uidiv ; 0x3cc4
        0x00003aba:    1e40        @.      SUBS     r0,r0,#1
        0x00003abc:    4932        2I      LDR      r1,[pc,#200] ; [0x3b88] = 0xe000e000
        0x00003abe:    6148        Ha      STR      r0,[r1,#0x14]
        0x00003ac0:    2007        .       MOVS     r0,#7
        0x00003ac2:    6108        .a      STR      r0,[r1,#0x10]
        0x00003ac4:    bd10        ..      POP      {r4,pc}
    xPortStartScheduler
        0x00003ac6:    b510        ..      PUSH     {r4,lr}
        0x00003ac8:    4831        1H      LDR      r0,[pc,#196] ; [0x3b90] = 0xe000ed00
        0x00003aca:    6a00        .j      LDR      r0,[r0,#0x20]
        0x00003acc:    21ff        .!      MOVS     r1,#0xff
        0x00003ace:    0409        ..      LSLS     r1,r1,#16
        0x00003ad0:    4308        .C      ORRS     r0,r0,r1
        0x00003ad2:    492f        /I      LDR      r1,[pc,#188] ; [0x3b90] = 0xe000ed00
        0x00003ad4:    6208        .b      STR      r0,[r1,#0x20]
        0x00003ad6:    4608        .F      MOV      r0,r1
        0x00003ad8:    6a00        .j      LDR      r0,[r0,#0x20]
        0x00003ada:    21ff        .!      MOVS     r1,#0xff
        0x00003adc:    0609        ..      LSLS     r1,r1,#24
        0x00003ade:    4308        .C      ORRS     r0,r0,r1
        0x00003ae0:    492b        +I      LDR      r1,[pc,#172] ; [0x3b90] = 0xe000ed00
        0x00003ae2:    6208        .b      STR      r0,[r1,#0x20]
        0x00003ae4:    f7ffffde    ....    BL       prvSetupTimerInterrupt ; 0x3aa4
        0x00003ae8:    2000        .       MOVS     r0,#0
        0x00003aea:    4925        %I      LDR      r1,[pc,#148] ; [0x3b80] = 0x20000064
        0x00003aec:    6008        .`      STR      r0,[r1,#0]
        0x00003aee:    f7fcfaff    ....    BL       __asm___6_port_c_39a90d8d__prvPortStartFirstTask ; 0xf0
        0x00003af2:    2000        .       MOVS     r0,#0
        0x00003af4:    bd10        ..      POP      {r4,pc}
    vPortEndScheduler
        0x00003af6:    4822        "H      LDR      r0,[pc,#136] ; [0x3b80] = 0x20000064
        0x00003af8:    6800        .h      LDR      r0,[r0,#0]
        0x00003afa:    217d        }!      MOVS     r1,#0x7d
        0x00003afc:    00c9        ..      LSLS     r1,r1,#3
        0x00003afe:    4288        .B      CMP      r0,r1
        0x00003b00:    d101        ..      BNE      0x3b06 ; vPortEndScheduler + 16
        0x00003b02:    2001        .       MOVS     r0,#1
        0x00003b04:    e000        ..      B        0x3b08 ; vPortEndScheduler + 18
        0x00003b06:    2000        .       MOVS     r0,#0
        0x00003b08:    2800        .(      CMP      r0,#0
        0x00003b0a:    d102        ..      BNE      0x3b12 ; vPortEndScheduler + 28
        0x00003b0c:    b672        r.      CPSID    i
        0x00003b0e:    bf00        ..      NOP      
        0x00003b10:    e7fe        ..      B        0x3b10 ; vPortEndScheduler + 26
        0x00003b12:    4770        pG      BX       lr
    vPortYield
        0x00003b14:    2001        .       MOVS     r0,#1
        0x00003b16:    0700        ..      LSLS     r0,r0,#28
        0x00003b18:    491d        .I      LDR      r1,[pc,#116] ; [0x3b90] = 0xe000ed00
        0x00003b1a:    6048        H`      STR      r0,[r1,#4]
        0x00003b1c:    f3bf8f4f    ..O.    DSB      
        0x00003b20:    f3bf8f6f    ..o.    ISB      
        0x00003b24:    4770        pG      BX       lr
    vPortEnterCritical
        0x00003b26:    b672        r.      CPSID    i
        0x00003b28:    4815        .H      LDR      r0,[pc,#84] ; [0x3b80] = 0x20000064
        0x00003b2a:    6800        .h      LDR      r0,[r0,#0]
        0x00003b2c:    1c40        @.      ADDS     r0,r0,#1
        0x00003b2e:    4914        .I      LDR      r1,[pc,#80] ; [0x3b80] = 0x20000064
        0x00003b30:    6008        .`      STR      r0,[r1,#0]
        0x00003b32:    f3bf8f4f    ..O.    DSB      
        0x00003b36:    f3bf8f6f    ..o.    ISB      
        0x00003b3a:    4770        pG      BX       lr
    vPortExitCritical
        0x00003b3c:    4810        .H      LDR      r0,[pc,#64] ; [0x3b80] = 0x20000064
        0x00003b3e:    6800        .h      LDR      r0,[r0,#0]
        0x00003b40:    2800        .(      CMP      r0,#0
        0x00003b42:    d102        ..      BNE      0x3b4a ; vPortExitCritical + 14
        0x00003b44:    b672        r.      CPSID    i
        0x00003b46:    bf00        ..      NOP      
        0x00003b48:    e7fe        ..      B        0x3b48 ; vPortExitCritical + 12
        0x00003b4a:    480d        .H      LDR      r0,[pc,#52] ; [0x3b80] = 0x20000064
        0x00003b4c:    6800        .h      LDR      r0,[r0,#0]
        0x00003b4e:    1e40        @.      SUBS     r0,r0,#1
        0x00003b50:    490b        .I      LDR      r1,[pc,#44] ; [0x3b80] = 0x20000064
        0x00003b52:    6008        .`      STR      r0,[r1,#0]
        0x00003b54:    4608        .F      MOV      r0,r1
        0x00003b56:    6800        .h      LDR      r0,[r0,#0]
        0x00003b58:    2800        .(      CMP      r0,#0
        0x00003b5a:    d100        ..      BNE      0x3b5e ; vPortExitCritical + 34
        0x00003b5c:    b662        b.      CPSIE    i
        0x00003b5e:    4770        pG      BX       lr
    SysTick_Handler
        0x00003b60:    b510        ..      PUSH     {r4,lr}
        0x00003b62:    f7fcfad9    ....    BL       ulSetInterruptMaskFromISR ; 0x118
        0x00003b66:    4604        .F      MOV      r4,r0
        0x00003b68:    f7fdfc7b    ..{.    BL       xTaskIncrementTick ; 0x1462
        0x00003b6c:    2800        .(      CMP      r0,#0
        0x00003b6e:    d003        ..      BEQ      0x3b78 ; SysTick_Handler + 24
        0x00003b70:    2001        .       MOVS     r0,#1
        0x00003b72:    0700        ..      LSLS     r0,r0,#28
        0x00003b74:    4906        .I      LDR      r1,[pc,#24] ; [0x3b90] = 0xe000ed00
        0x00003b76:    6048        H`      STR      r0,[r1,#4]
        0x00003b78:    4620         F      MOV      r0,r4
        0x00003b7a:    f7fcfad1    ....    BL       vClearInterruptMaskFromISR ; 0x120
        0x00003b7e:    bd10        ..      POP      {r4,pc}
    $d
        0x00003b80:    20000064    d..     DCD    536871012
        0x00003b84:    00003a69    i:..    DCD    14953
        0x00003b88:    e000e000    ....    DCD    3758153728
        0x00003b8c:    20000000    ...     DCD    536870912
        0x00003b90:    e000ed00    ....    DCD    3758157056
    $t
    .text
    prvHeapInit
        0x00003b94:    4a45        EJ      LDR      r2,[pc,#276] ; [0x3cac] = 0x200001b8
        0x00003b96:    08d0        ..      LSRS     r0,r2,#3
        0x00003b98:    00c0        ..      LSLS     r0,r0,#3
        0x00003b9a:    4a45        EJ      LDR      r2,[pc,#276] ; [0x3cb0] = 0x20000068
        0x00003b9c:    6010        .`      STR      r0,[r2,#0]
        0x00003b9e:    2200        ."      MOVS     r2,#0
        0x00003ba0:    4b43        CK      LDR      r3,[pc,#268] ; [0x3cb0] = 0x20000068
        0x00003ba2:    605a        Z`      STR      r2,[r3,#4]
        0x00003ba4:    4a43        CJ      LDR      r2,[pc,#268] ; [0x3cb4] = 0x13f8
        0x00003ba6:    4b44        DK      LDR      r3,[pc,#272] ; [0x3cb8] = 0x20000070
        0x00003ba8:    605a        Z`      STR      r2,[r3,#4]
        0x00003baa:    2200        ."      MOVS     r2,#0
        0x00003bac:    601a        .`      STR      r2,[r3,#0]
        0x00003bae:    4601        .F      MOV      r1,r0
        0x00003bb0:    4a40        @J      LDR      r2,[pc,#256] ; [0x3cb4] = 0x13f8
        0x00003bb2:    604a        J`      STR      r2,[r1,#4]
        0x00003bb4:    461a        .F      MOV      r2,r3
        0x00003bb6:    600a        .`      STR      r2,[r1,#0]
        0x00003bb8:    4770        pG      BX       lr
    pvPortMalloc
        0x00003bba:    b5f8        ..      PUSH     {r3-r7,lr}
        0x00003bbc:    4604        .F      MOV      r4,r0
        0x00003bbe:    2000        .       MOVS     r0,#0
        0x00003bc0:    9000        ..      STR      r0,[sp,#0]
        0x00003bc2:    f7fdfd9e    ....    BL       vTaskSuspendAll ; 0x1702
        0x00003bc6:    483d        =H      LDR      r0,[pc,#244] ; [0x3cbc] = 0x2000007c
        0x00003bc8:    6800        .h      LDR      r0,[r0,#0]
        0x00003bca:    2800        .(      CMP      r0,#0
        0x00003bcc:    d104        ..      BNE      0x3bd8 ; pvPortMalloc + 30
        0x00003bce:    f7ffffe1    ....    BL       prvHeapInit ; 0x3b94
        0x00003bd2:    2001        .       MOVS     r0,#1
        0x00003bd4:    4939        9I      LDR      r1,[pc,#228] ; [0x3cbc] = 0x2000007c
        0x00003bd6:    6008        .`      STR      r0,[r1,#0]
        0x00003bd8:    2c00        .,      CMP      r4,#0
        0x00003bda:    d009        ..      BEQ      0x3bf0 ; pvPortMalloc + 54
        0x00003bdc:    3408        .4      ADDS     r4,r4,#8
        0x00003bde:    0760        `.      LSLS     r0,r4,#29
        0x00003be0:    0f40        @.      LSRS     r0,r0,#29
        0x00003be2:    2800        .(      CMP      r0,#0
        0x00003be4:    d004        ..      BEQ      0x3bf0 ; pvPortMalloc + 54
        0x00003be6:    0760        `.      LSLS     r0,r4,#29
        0x00003be8:    0f40        @.      LSRS     r0,r0,#29
        0x00003bea:    2108        .!      MOVS     r1,#8
        0x00003bec:    1a08        ..      SUBS     r0,r1,r0
        0x00003bee:    1904        ..      ADDS     r4,r0,r4
        0x00003bf0:    2c00        .,      CMP      r4,#0
        0x00003bf2:    d031        1.      BEQ      0x3c58 ; pvPortMalloc + 158
        0x00003bf4:    482f        /H      LDR      r0,[pc,#188] ; [0x3cb4] = 0x13f8
        0x00003bf6:    4284        .B      CMP      r4,r0
        0x00003bf8:    d22e        ..      BCS      0x3c58 ; pvPortMalloc + 158
        0x00003bfa:    4f2d        -O      LDR      r7,[pc,#180] ; [0x3cb0] = 0x20000068
        0x00003bfc:    4638        8F      MOV      r0,r7
        0x00003bfe:    6805        .h      LDR      r5,[r0,#0]
        0x00003c00:    e001        ..      B        0x3c06 ; pvPortMalloc + 76
        0x00003c02:    462f        /F      MOV      r7,r5
        0x00003c04:    682d        -h      LDR      r5,[r5,#0]
        0x00003c06:    6868        hh      LDR      r0,[r5,#4]
        0x00003c08:    42a0        .B      CMP      r0,r4
        0x00003c0a:    d202        ..      BCS      0x3c12 ; pvPortMalloc + 88
        0x00003c0c:    6828        (h      LDR      r0,[r5,#0]
        0x00003c0e:    2800        .(      CMP      r0,#0
        0x00003c10:    d1f7        ..      BNE      0x3c02 ; pvPortMalloc + 72
        0x00003c12:    4829        )H      LDR      r0,[pc,#164] ; [0x3cb8] = 0x20000070
        0x00003c14:    4285        .B      CMP      r5,r0
        0x00003c16:    d01f        ..      BEQ      0x3c58 ; pvPortMalloc + 158
        0x00003c18:    6838        8h      LDR      r0,[r7,#0]
        0x00003c1a:    3008        .0      ADDS     r0,r0,#8
        0x00003c1c:    9000        ..      STR      r0,[sp,#0]
        0x00003c1e:    6828        (h      LDR      r0,[r5,#0]
        0x00003c20:    6038        8`      STR      r0,[r7,#0]
        0x00003c22:    6868        hh      LDR      r0,[r5,#4]
        0x00003c24:    1b00        ..      SUBS     r0,r0,r4
        0x00003c26:    2810        .(      CMP      r0,#0x10
        0x00003c28:    d910        ..      BLS      0x3c4c ; pvPortMalloc + 146
        0x00003c2a:    192e        ..      ADDS     r6,r5,r4
        0x00003c2c:    6868        hh      LDR      r0,[r5,#4]
        0x00003c2e:    1b00        ..      SUBS     r0,r0,r4
        0x00003c30:    6070        p`      STR      r0,[r6,#4]
        0x00003c32:    606c        l`      STR      r4,[r5,#4]
        0x00003c34:    6871        qh      LDR      r1,[r6,#4]
        0x00003c36:    481e        .H      LDR      r0,[pc,#120] ; [0x3cb0] = 0x20000068
        0x00003c38:    e000        ..      B        0x3c3c ; pvPortMalloc + 130
        0x00003c3a:    6800        .h      LDR      r0,[r0,#0]
        0x00003c3c:    6802        .h      LDR      r2,[r0,#0]
        0x00003c3e:    6852        Rh      LDR      r2,[r2,#4]
        0x00003c40:    428a        .B      CMP      r2,r1
        0x00003c42:    d3fa        ..      BCC      0x3c3a ; pvPortMalloc + 128
        0x00003c44:    6802        .h      LDR      r2,[r0,#0]
        0x00003c46:    6032        2`      STR      r2,[r6,#0]
        0x00003c48:    6006        .`      STR      r6,[r0,#0]
        0x00003c4a:    bf00        ..      NOP      
        0x00003c4c:    491c        .I      LDR      r1,[pc,#112] ; [0x3cc0] = 0x20000078
        0x00003c4e:    6868        hh      LDR      r0,[r5,#4]
        0x00003c50:    6809        .h      LDR      r1,[r1,#0]
        0x00003c52:    1a08        ..      SUBS     r0,r1,r0
        0x00003c54:    491a        .I      LDR      r1,[pc,#104] ; [0x3cc0] = 0x20000078
        0x00003c56:    6008        .`      STR      r0,[r1,#0]
        0x00003c58:    f7fdfc92    ....    BL       xTaskResumeAll ; 0x1580
        0x00003c5c:    9800        ..      LDR      r0,[sp,#0]
        0x00003c5e:    2800        .(      CMP      r0,#0
        0x00003c60:    d101        ..      BNE      0x3c66 ; pvPortMalloc + 172
        0x00003c62:    f7fcfb84    ....    BL       vApplicationMallocFailedHook ; 0x36e
        0x00003c66:    9800        ..      LDR      r0,[sp,#0]
        0x00003c68:    bdf8        ..      POP      {r3-r7,pc}
    vPortFree
        0x00003c6a:    b570        p.      PUSH     {r4-r6,lr}
        0x00003c6c:    4606        .F      MOV      r6,r0
        0x00003c6e:    4635        5F      MOV      r5,r6
        0x00003c70:    2e00        ..      CMP      r6,#0
        0x00003c72:    d016        ..      BEQ      0x3ca2 ; vPortFree + 56
        0x00003c74:    3d08        .=      SUBS     r5,r5,#8
        0x00003c76:    462c        ,F      MOV      r4,r5
        0x00003c78:    f7fdfd43    ..C.    BL       vTaskSuspendAll ; 0x1702
        0x00003c7c:    6861        ah      LDR      r1,[r4,#4]
        0x00003c7e:    480c        .H      LDR      r0,[pc,#48] ; [0x3cb0] = 0x20000068
        0x00003c80:    e000        ..      B        0x3c84 ; vPortFree + 26
        0x00003c82:    6800        .h      LDR      r0,[r0,#0]
        0x00003c84:    6802        .h      LDR      r2,[r0,#0]
        0x00003c86:    6852        Rh      LDR      r2,[r2,#4]
        0x00003c88:    428a        .B      CMP      r2,r1
        0x00003c8a:    d3fa        ..      BCC      0x3c82 ; vPortFree + 24
        0x00003c8c:    6802        .h      LDR      r2,[r0,#0]
        0x00003c8e:    6022        "`      STR      r2,[r4,#0]
        0x00003c90:    6004        .`      STR      r4,[r0,#0]
        0x00003c92:    490b        .I      LDR      r1,[pc,#44] ; [0x3cc0] = 0x20000078
        0x00003c94:    6860        `h      LDR      r0,[r4,#4]
        0x00003c96:    6809        .h      LDR      r1,[r1,#0]
        0x00003c98:    1840        @.      ADDS     r0,r0,r1
        0x00003c9a:    4909        .I      LDR      r1,[pc,#36] ; [0x3cc0] = 0x20000078
        0x00003c9c:    6008        .`      STR      r0,[r1,#0]
        0x00003c9e:    f7fdfc6f    ..o.    BL       xTaskResumeAll ; 0x1580
        0x00003ca2:    bd70        p.      POP      {r4-r6,pc}
    xPortGetFreeHeapSize
        0x00003ca4:    4806        .H      LDR      r0,[pc,#24] ; [0x3cc0] = 0x20000078
        0x00003ca6:    6800        .h      LDR      r0,[r0,#0]
        0x00003ca8:    4770        pG      BX       lr
    vPortInitialiseBlocks
        0x00003caa:    4770        pG      BX       lr
    $d
        0x00003cac:    200001b8    ...     DCD    536871352
        0x00003cb0:    20000068    h..     DCD    536871016
        0x00003cb4:    000013f8    ....    DCD    5112
        0x00003cb8:    20000070    p..     DCD    536871024
        0x00003cbc:    2000007c    |..     DCD    536871036
        0x00003cc0:    20000078    x..     DCD    536871032
    $t
    .text
    __aeabi_uidiv
    __aeabi_uidivmod
        0x00003cc4:    b530        0.      PUSH     {r4,r5,lr}
        0x00003cc6:    460b        .F      MOV      r3,r1
        0x00003cc8:    4601        .F      MOV      r1,r0
        0x00003cca:    2000        .       MOVS     r0,#0
        0x00003ccc:    2220         "      MOVS     r2,#0x20
        0x00003cce:    2401        .$      MOVS     r4,#1
        0x00003cd0:    e009        ..      B        0x3ce6 ; __aeabi_uidiv + 34
        0x00003cd2:    460d        .F      MOV      r5,r1
        0x00003cd4:    40d5        .@      LSRS     r5,r5,r2
        0x00003cd6:    429d        .B      CMP      r5,r3
        0x00003cd8:    d305        ..      BCC      0x3ce6 ; __aeabi_uidiv + 34
        0x00003cda:    461d        .F      MOV      r5,r3
        0x00003cdc:    4095        .@      LSLS     r5,r5,r2
        0x00003cde:    1b49        I.      SUBS     r1,r1,r5
        0x00003ce0:    4625        %F      MOV      r5,r4
        0x00003ce2:    4095        .@      LSLS     r5,r5,r2
        0x00003ce4:    1940        @.      ADDS     r0,r0,r5
        0x00003ce6:    4615        .F      MOV      r5,r2
        0x00003ce8:    1e52        R.      SUBS     r2,r2,#1
        0x00003cea:    2d00        .-      CMP      r5,#0
        0x00003cec:    dcf1        ..      BGT      0x3cd2 ; __aeabi_uidiv + 14
        0x00003cee:    bd30        0.      POP      {r4,r5,pc}
    .text
    __aeabi_memcpy
    __aeabi_memcpy4
    __aeabi_memcpy8
        0x00003cf0:    4603        .F      MOV      r3,r0
        0x00003cf2:    430b        .C      ORRS     r3,r3,r1
        0x00003cf4:    079b        ..      LSLS     r3,r3,#30
        0x00003cf6:    d003        ..      BEQ      0x3d00 ; __aeabi_memcpy + 16
        0x00003cf8:    e009        ..      B        0x3d0e ; __aeabi_memcpy + 30
        0x00003cfa:    c908        ..      LDM      r1!,{r3}
        0x00003cfc:    1f12        ..      SUBS     r2,r2,#4
        0x00003cfe:    c008        ..      STM      r0!,{r3}
        0x00003d00:    2a04        .*      CMP      r2,#4
        0x00003d02:    d2fa        ..      BCS      0x3cfa ; __aeabi_memcpy + 10
        0x00003d04:    e003        ..      B        0x3d0e ; __aeabi_memcpy + 30
        0x00003d06:    780b        .x      LDRB     r3,[r1,#0]
        0x00003d08:    7003        .p      STRB     r3,[r0,#0]
        0x00003d0a:    1c40        @.      ADDS     r0,r0,#1
        0x00003d0c:    1c49        I.      ADDS     r1,r1,#1
        0x00003d0e:    1e52        R.      SUBS     r2,r2,#1
        0x00003d10:    d2f9        ..      BCS      0x3d06 ; __aeabi_memcpy + 22
        0x00003d12:    4770        pG      BX       lr
    .text
    __aeabi_memset
    __aeabi_memset4
    __aeabi_memset8
        0x00003d14:    b2d2        ..      UXTB     r2,r2
        0x00003d16:    e001        ..      B        0x3d1c ; __aeabi_memset + 8
        0x00003d18:    7002        .p      STRB     r2,[r0,#0]
        0x00003d1a:    1c40        @.      ADDS     r0,r0,#1
        0x00003d1c:    1e49        I.      SUBS     r1,r1,#1
        0x00003d1e:    d2fb        ..      BCS      0x3d18 ; __aeabi_memset + 4
        0x00003d20:    4770        pG      BX       lr
    __aeabi_memclr
    __aeabi_memclr4
    __aeabi_memclr8
        0x00003d22:    2200        ."      MOVS     r2,#0
        0x00003d24:    e7f6        ..      B        __aeabi_memset ; 0x3d14
    memset
        0x00003d26:    b510        ..      PUSH     {r4,lr}
        0x00003d28:    4613        .F      MOV      r3,r2
        0x00003d2a:    460a        .F      MOV      r2,r1
        0x00003d2c:    4604        .F      MOV      r4,r0
        0x00003d2e:    4619        .F      MOV      r1,r3
        0x00003d30:    f7fffff0    ....    BL       __aeabi_memset ; 0x3d14
        0x00003d34:    4620         F      MOV      r0,r4
        0x00003d36:    bd10        ..      POP      {r4,pc}
    .text
    __aeabi_uldivmod
        0x00003d38:    b5f0        ..      PUSH     {r4-r7,lr}
        0x00003d3a:    b41f        ..      PUSH     {r0-r4}
        0x00003d3c:    4606        .F      MOV      r6,r0
        0x00003d3e:    2000        .       MOVS     r0,#0
        0x00003d40:    b082        ..      SUB      sp,sp,#8
        0x00003d42:    4605        .F      MOV      r5,r0
        0x00003d44:    2440        @$      MOVS     r4,#0x40
        0x00003d46:    9101        ..      STR      r1,[sp,#4]
        0x00003d48:    9000        ..      STR      r0,[sp,#0]
        0x00003d4a:    e01b        ..      B        0x3d84 ; __aeabi_uldivmod + 76
        0x00003d4c:    9901        ..      LDR      r1,[sp,#4]
        0x00003d4e:    4622        "F      MOV      r2,r4
        0x00003d50:    460f        .F      MOV      r7,r1
        0x00003d52:    4630        0F      MOV      r0,r6
        0x00003d54:    f000f842    ..B.    BL       __aeabi_llsr ; 0x3ddc
        0x00003d58:    9a04        ..      LDR      r2,[sp,#0x10]
        0x00003d5a:    9b05        ..      LDR      r3,[sp,#0x14]
        0x00003d5c:    1a80        ..      SUBS     r0,r0,r2
        0x00003d5e:    4199        .A      SBCS     r1,r1,r3
        0x00003d60:    d310        ..      BCC      0x3d84 ; __aeabi_uldivmod + 76
        0x00003d62:    4610        .F      MOV      r0,r2
        0x00003d64:    4619        .F      MOV      r1,r3
        0x00003d66:    4622        "F      MOV      r2,r4
        0x00003d68:    f000f828    ..(.    BL       __aeabi_llsl ; 0x3dbc
        0x00003d6c:    1a36        6.      SUBS     r6,r6,r0
        0x00003d6e:    418f        .A      SBCS     r7,r7,r1
        0x00003d70:    9701        ..      STR      r7,[sp,#4]
        0x00003d72:    4622        "F      MOV      r2,r4
        0x00003d74:    2001        .       MOVS     r0,#1
        0x00003d76:    2100        .!      MOVS     r1,#0
        0x00003d78:    9f00        ..      LDR      r7,[sp,#0]
        0x00003d7a:    f000f81f    ....    BL       __aeabi_llsl ; 0x3dbc
        0x00003d7e:    1838        8.      ADDS     r0,r7,r0
        0x00003d80:    414d        MA      ADCS     r5,r5,r1
        0x00003d82:    9000        ..      STR      r0,[sp,#0]
        0x00003d84:    4620         F      MOV      r0,r4
        0x00003d86:    1e64        d.      SUBS     r4,r4,#1
        0x00003d88:    2800        .(      CMP      r0,#0
        0x00003d8a:    dcdf        ..      BGT      0x3d4c ; __aeabi_uldivmod + 20
        0x00003d8c:    9b01        ..      LDR      r3,[sp,#4]
        0x00003d8e:    9800        ..      LDR      r0,[sp,#0]
        0x00003d90:    4629        )F      MOV      r1,r5
        0x00003d92:    4632        2F      MOV      r2,r6
        0x00003d94:    b007        ..      ADD      sp,sp,#0x1c
        0x00003d96:    bdf0        ..      POP      {r4-r7,pc}
    .text
    __scatterload
    __scatterload_rt2
        0x00003d98:    4c06        .L      LDR      r4,[pc,#24] ; [0x3db4] = 0x41b8
        0x00003d9a:    2501        .%      MOVS     r5,#1
        0x00003d9c:    4e06        .N      LDR      r6,[pc,#24] ; [0x3db8] = 0x41d8
        0x00003d9e:    e005        ..      B        0x3dac ; __scatterload + 20
        0x00003da0:    68e3        .h      LDR      r3,[r4,#0xc]
        0x00003da2:    cc07        ..      LDM      r4!,{r0-r2}
        0x00003da4:    432b        +C      ORRS     r3,r3,r5
        0x00003da6:    3c0c        .<      SUBS     r4,r4,#0xc
        0x00003da8:    4798        .G      BLX      r3
        0x00003daa:    3410        .4      ADDS     r4,r4,#0x10
        0x00003dac:    42b4        .B      CMP      r4,r6
        0x00003dae:    d3f7        ..      BCC      0x3da0 ; __scatterload + 8
        0x00003db0:    f7fcf98a    ....    BL       __main_after_scatterload ; 0xc8
    $d
        0x00003db4:    000041b8    .A..    DCD    16824
        0x00003db8:    000041d8    .A..    DCD    16856
    $t
    .text
    __aeabi_llsl
    _ll_shift_l
        0x00003dbc:    b510        ..      PUSH     {r4,lr}
        0x00003dbe:    2a20         *      CMP      r2,#0x20
        0x00003dc0:    db04        ..      BLT      0x3dcc ; __aeabi_llsl + 16
        0x00003dc2:    4601        .F      MOV      r1,r0
        0x00003dc4:    3a20         :      SUBS     r2,r2,#0x20
        0x00003dc6:    4091        .@      LSLS     r1,r1,r2
        0x00003dc8:    2000        .       MOVS     r0,#0
        0x00003dca:    bd10        ..      POP      {r4,pc}
        0x00003dcc:    4091        .@      LSLS     r1,r1,r2
        0x00003dce:    2320         #      MOVS     r3,#0x20
        0x00003dd0:    1a9c        ..      SUBS     r4,r3,r2
        0x00003dd2:    4603        .F      MOV      r3,r0
        0x00003dd4:    40e3        .@      LSRS     r3,r3,r4
        0x00003dd6:    4319        .C      ORRS     r1,r1,r3
        0x00003dd8:    4090        .@      LSLS     r0,r0,r2
        0x00003dda:    bd10        ..      POP      {r4,pc}
    .text
    __aeabi_llsr
    _ll_ushift_r
        0x00003ddc:    b510        ..      PUSH     {r4,lr}
        0x00003dde:    2a20         *      CMP      r2,#0x20
        0x00003de0:    db04        ..      BLT      0x3dec ; __aeabi_llsr + 16
        0x00003de2:    4608        .F      MOV      r0,r1
        0x00003de4:    3a20         :      SUBS     r2,r2,#0x20
        0x00003de6:    40d0        .@      LSRS     r0,r0,r2
        0x00003de8:    2100        .!      MOVS     r1,#0
        0x00003dea:    bd10        ..      POP      {r4,pc}
        0x00003dec:    460b        .F      MOV      r3,r1
        0x00003dee:    40d3        .@      LSRS     r3,r3,r2
        0x00003df0:    40d0        .@      LSRS     r0,r0,r2
        0x00003df2:    2420         $      MOVS     r4,#0x20
        0x00003df4:    1aa2        ..      SUBS     r2,r4,r2
        0x00003df6:    4091        .@      LSLS     r1,r1,r2
        0x00003df8:    4308        .C      ORRS     r0,r0,r1
        0x00003dfa:    4619        .F      MOV      r1,r3
        0x00003dfc:    bd10        ..      POP      {r4,pc}
        0x00003dfe:    0000        ..      MOVS     r0,r0
    i.__0printf$5
    __0printf$5
    __1printf$5
    __2printf
        0x00003e00:    b40f        ..      PUSH     {r0-r3}
        0x00003e02:    b510        ..      PUSH     {r4,lr}
        0x00003e04:    a903        ..      ADD      r1,sp,#0xc
        0x00003e06:    4b04        .K      LDR      r3,[pc,#16] ; [0x3e18] = 0x56b
        0x00003e08:    4a04        .J      LDR      r2,[pc,#16] ; [0x3e1c] = 0x2000000c
        0x00003e0a:    9802        ..      LDR      r0,[sp,#8]
        0x00003e0c:    f000f826    ..&.    BL       _printf_core ; 0x3e5c
        0x00003e10:    bc10        ..      POP      {r4}
        0x00003e12:    bc08        ..      POP      {r3}
        0x00003e14:    b004        ..      ADD      sp,sp,#0x10
        0x00003e16:    4718        .G      BX       r3
    $d
        0x00003e18:    0000056b    k...    DCD    1387
        0x00003e1c:    2000000c    ...     DCD    536870924
    $t
    i.__ARM_common_switch8
    __ARM_common_switch8
        0x00003e20:    b430        0.      PUSH     {r4,r5}
        0x00003e22:    4674        tF      MOV      r4,lr
        0x00003e24:    1e64        d.      SUBS     r4,r4,#1
        0x00003e26:    7825        %x      LDRB     r5,[r4,#0]
        0x00003e28:    1c64        d.      ADDS     r4,r4,#1
        0x00003e2a:    42ab        .B      CMP      r3,r5
        0x00003e2c:    d304        ..      BCC      0x3e38 ; __ARM_common_switch8 + 24
        0x00003e2e:    5d63        c]      LDRB     r3,[r4,r5]
        0x00003e30:    005b        [.      LSLS     r3,r3,#1
        0x00003e32:    18e3        ..      ADDS     r3,r4,r3
        0x00003e34:    bc30        0.      POP      {r4,r5}
        0x00003e36:    4718        .G      BX       r3
        0x00003e38:    461d        .F      MOV      r5,r3
        0x00003e3a:    e7f8        ..      B        0x3e2e ; __ARM_common_switch8 + 14
    i.__scatterload_copy
    __scatterload_copy
        0x00003e3c:    e002        ..      B        0x3e44 ; __scatterload_copy + 8
        0x00003e3e:    c808        ..      LDM      r0!,{r3}
        0x00003e40:    1f12        ..      SUBS     r2,r2,#4
        0x00003e42:    c108        ..      STM      r1!,{r3}
        0x00003e44:    2a00        .*      CMP      r2,#0
        0x00003e46:    d1fa        ..      BNE      0x3e3e ; __scatterload_copy + 2
        0x00003e48:    4770        pG      BX       lr
    i.__scatterload_null
    __scatterload_null
        0x00003e4a:    4770        pG      BX       lr
    i.__scatterload_zeroinit
    __scatterload_zeroinit
        0x00003e4c:    2000        .       MOVS     r0,#0
        0x00003e4e:    e001        ..      B        0x3e54 ; __scatterload_zeroinit + 8
        0x00003e50:    c101        ..      STM      r1!,{r0}
        0x00003e52:    1f12        ..      SUBS     r2,r2,#4
        0x00003e54:    2a00        .*      CMP      r2,#0
        0x00003e56:    d1fb        ..      BNE      0x3e50 ; __scatterload_zeroinit + 4
        0x00003e58:    4770        pG      BX       lr
        0x00003e5a:    0000        ..      MOVS     r0,r0
    i._printf_core
    _printf_core
        0x00003e5c:    b5ff        ..      PUSH     {r0-r7,lr}
        0x00003e5e:    b08f        ..      SUB      sp,sp,#0x3c
        0x00003e60:    460f        .F      MOV      r7,r1
        0x00003e62:    4604        .F      MOV      r4,r0
        0x00003e64:    2600        .&      MOVS     r6,#0
        0x00003e66:    e006        ..      B        0x3e76 ; _printf_core + 26
        0x00003e68:    2825        %(      CMP      r0,#0x25
        0x00003e6a:    d00a        ..      BEQ      0x3e82 ; _printf_core + 38
        0x00003e6c:    9a12        ..      LDR      r2,[sp,#0x48]
        0x00003e6e:    9911        ..      LDR      r1,[sp,#0x44]
        0x00003e70:    4790        .G      BLX      r2
        0x00003e72:    1c64        d.      ADDS     r4,r4,#1
        0x00003e74:    1c76        v.      ADDS     r6,r6,#1
        0x00003e76:    7820         x      LDRB     r0,[r4,#0]
        0x00003e78:    2800        .(      CMP      r0,#0
        0x00003e7a:    d1f5        ..      BNE      0x3e68 ; _printf_core + 12
        0x00003e7c:    4630        0F      MOV      r0,r6
        0x00003e7e:    b013        ..      ADD      sp,sp,#0x4c
        0x00003e80:    bdf0        ..      POP      {r4-r7,pc}
        0x00003e82:    2500        .%      MOVS     r5,#0
        0x00003e84:    2101        .!      MOVS     r1,#1
        0x00003e86:    4aa1        .J      LDR      r2,[pc,#644] ; [0x410c] = 0x12809
        0x00003e88:    9500        ..      STR      r5,[sp,#0]
        0x00003e8a:    e000        ..      B        0x3e8e ; _printf_core + 50
        0x00003e8c:    4305        .C      ORRS     r5,r5,r0
        0x00003e8e:    1c64        d.      ADDS     r4,r4,#1
        0x00003e90:    7823        #x      LDRB     r3,[r4,#0]
        0x00003e92:    4608        .F      MOV      r0,r1
        0x00003e94:    3b20         ;      SUBS     r3,r3,#0x20
        0x00003e96:    4098        .@      LSLS     r0,r0,r3
        0x00003e98:    4210        .B      TST      r0,r2
        0x00003e9a:    d1f7        ..      BNE      0x3e8c ; _printf_core + 48
        0x00003e9c:    7820         x      LDRB     r0,[r4,#0]
        0x00003e9e:    282e        .(      CMP      r0,#0x2e
        0x00003ea0:    d115        ..      BNE      0x3ece ; _printf_core + 114
        0x00003ea2:    2004        .       MOVS     r0,#4
        0x00003ea4:    4305        .C      ORRS     r5,r5,r0
        0x00003ea6:    7860        `x      LDRB     r0,[r4,#1]
        0x00003ea8:    1c64        d.      ADDS     r4,r4,#1
        0x00003eaa:    282a        *(      CMP      r0,#0x2a
        0x00003eac:    d10a        ..      BNE      0x3ec4 ; _printf_core + 104
        0x00003eae:    cf01        ..      LDM      r7!,{r0}
        0x00003eb0:    1c64        d.      ADDS     r4,r4,#1
        0x00003eb2:    9000        ..      STR      r0,[sp,#0]
        0x00003eb4:    e00b        ..      B        0x3ece ; _printf_core + 114
        0x00003eb6:    9900        ..      LDR      r1,[sp,#0]
        0x00003eb8:    220a        ."      MOVS     r2,#0xa
        0x00003eba:    4351        QC      MULS     r1,r2,r1
        0x00003ebc:    3930        09      SUBS     r1,r1,#0x30
        0x00003ebe:    1840        @.      ADDS     r0,r0,r1
        0x00003ec0:    1c64        d.      ADDS     r4,r4,#1
        0x00003ec2:    9000        ..      STR      r0,[sp,#0]
        0x00003ec4:    7820         x      LDRB     r0,[r4,#0]
        0x00003ec6:    4601        .F      MOV      r1,r0
        0x00003ec8:    3930        09      SUBS     r1,r1,#0x30
        0x00003eca:    2909        .)      CMP      r1,#9
        0x00003ecc:    d9f3        ..      BLS      0x3eb6 ; _printf_core + 90
        0x00003ece:    7820         x      LDRB     r0,[r4,#0]
        0x00003ed0:    286c        l(      CMP      r0,#0x6c
        0x00003ed2:    d00e        ..      BEQ      0x3ef2 ; _printf_core + 150
        0x00003ed4:    dc04        ..      BGT      0x3ee0 ; _printf_core + 132
        0x00003ed6:    284c        L(      CMP      r0,#0x4c
        0x00003ed8:    d013        ..      BEQ      0x3f02 ; _printf_core + 166
        0x00003eda:    286a        j(      CMP      r0,#0x6a
        0x00003edc:    d112        ..      BNE      0x3f04 ; _printf_core + 168
        0x00003ede:    e004        ..      B        0x3eea ; _printf_core + 142
        0x00003ee0:    2874        t(      CMP      r0,#0x74
        0x00003ee2:    d00e        ..      BEQ      0x3f02 ; _printf_core + 166
        0x00003ee4:    287a        z(      CMP      r0,#0x7a
        0x00003ee6:    d10d        ..      BNE      0x3f04 ; _printf_core + 168
        0x00003ee8:    e00b        ..      B        0x3f02 ; _printf_core + 166
        0x00003eea:    2001        .       MOVS     r0,#1
        0x00003eec:    0540        @.      LSLS     r0,r0,#21
        0x00003eee:    4305        .C      ORRS     r5,r5,r0
        0x00003ef0:    e007        ..      B        0x3f02 ; _printf_core + 166
        0x00003ef2:    2101        .!      MOVS     r1,#1
        0x00003ef4:    0509        ..      LSLS     r1,r1,#20
        0x00003ef6:    7862        bx      LDRB     r2,[r4,#1]
        0x00003ef8:    430d        .C      ORRS     r5,r5,r1
        0x00003efa:    4282        .B      CMP      r2,r0
        0x00003efc:    d101        ..      BNE      0x3f02 ; _printf_core + 166
        0x00003efe:    186d        m.      ADDS     r5,r5,r1
        0x00003f00:    1c64        d.      ADDS     r4,r4,#1
        0x00003f02:    1c64        d.      ADDS     r4,r4,#1
        0x00003f04:    7820         x      LDRB     r0,[r4,#0]
        0x00003f06:    4686        .F      MOV      lr,r0
        0x00003f08:    2869        i(      CMP      r0,#0x69
        0x00003f0a:    d04a        J.      BEQ      0x3fa2 ; _printf_core + 326
        0x00003f0c:    dc08        ..      BGT      0x3f20 ; _printf_core + 196
        0x00003f0e:    2800        .(      CMP      r0,#0
        0x00003f10:    d0b4        ..      BEQ      0x3e7c ; _printf_core + 32
        0x00003f12:    2858        X(      CMP      r0,#0x58
        0x00003f14:    d06d        m.      BEQ      0x3ff2 ; _printf_core + 406
        0x00003f16:    2863        c(      CMP      r0,#0x63
        0x00003f18:    d010        ..      BEQ      0x3f3c ; _printf_core + 224
        0x00003f1a:    2864        d(      CMP      r0,#0x64
        0x00003f1c:    d108        ..      BNE      0x3f30 ; _printf_core + 212
        0x00003f1e:    e040        @.      B        0x3fa2 ; _printf_core + 326
        0x00003f20:    2870        p(      CMP      r0,#0x70
        0x00003f22:    d06b        k.      BEQ      0x3ffc ; _printf_core + 416
        0x00003f24:    2873        s(      CMP      r0,#0x73
        0x00003f26:    d012        ..      BEQ      0x3f4e ; _printf_core + 242
        0x00003f28:    2875        u(      CMP      r0,#0x75
        0x00003f2a:    d060        `.      BEQ      0x3fee ; _printf_core + 402
        0x00003f2c:    2878        x(      CMP      r0,#0x78
        0x00003f2e:    d060        `.      BEQ      0x3ff2 ; _printf_core + 406
        0x00003f30:    9a12        ..      LDR      r2,[sp,#0x48]
        0x00003f32:    4670        pF      MOV      r0,lr
        0x00003f34:    9911        ..      LDR      r1,[sp,#0x44]
        0x00003f36:    4790        .G      BLX      r2
        0x00003f38:    1c76        v.      ADDS     r6,r6,#1
        0x00003f3a:    e0e5        ..      B        0x4108 ; _printf_core + 684
        0x00003f3c:    7838        8x      LDRB     r0,[r7,#0]
        0x00003f3e:    4669        iF      MOV      r1,sp
        0x00003f40:    7208        .r      STRB     r0,[r1,#8]
        0x00003f42:    2000        .       MOVS     r0,#0
        0x00003f44:    7248        Hr      STRB     r0,[r1,#9]
        0x00003f46:    a802        ..      ADD      r0,sp,#8
        0x00003f48:    9001        ..      STR      r0,[sp,#4]
        0x00003f4a:    2001        .       MOVS     r0,#1
        0x00003f4c:    e003        ..      B        0x3f56 ; _printf_core + 250
        0x00003f4e:    6838        8h      LDR      r0,[r7,#0]
        0x00003f50:    9001        ..      STR      r0,[sp,#4]
        0x00003f52:    2000        .       MOVS     r0,#0
        0x00003f54:    43c0        .C      MVNS     r0,r0
        0x00003f56:    1d3f        ?.      ADDS     r7,r7,#4
        0x00003f58:    0769        i.      LSLS     r1,r5,#29
        0x00003f5a:    d50c        ..      BPL      0x3f76 ; _printf_core + 282
        0x00003f5c:    2500        .%      MOVS     r5,#0
        0x00003f5e:    e000        ..      B        0x3f62 ; _printf_core + 262
        0x00003f60:    1c6d        m.      ADDS     r5,r5,#1
        0x00003f62:    9900        ..      LDR      r1,[sp,#0]
        0x00003f64:    428d        .B      CMP      r5,r1
        0x00003f66:    da0f        ..      BGE      0x3f88 ; _printf_core + 300
        0x00003f68:    4285        .B      CMP      r5,r0
        0x00003f6a:    dbf9        ..      BLT      0x3f60 ; _printf_core + 260
        0x00003f6c:    9901        ..      LDR      r1,[sp,#4]
        0x00003f6e:    5d49        I]      LDRB     r1,[r1,r5]
        0x00003f70:    2900        .)      CMP      r1,#0
        0x00003f72:    d1f5        ..      BNE      0x3f60 ; _printf_core + 260
        0x00003f74:    e008        ..      B        0x3f88 ; _printf_core + 300
        0x00003f76:    2500        .%      MOVS     r5,#0
        0x00003f78:    e000        ..      B        0x3f7c ; _printf_core + 288
        0x00003f7a:    1c6d        m.      ADDS     r5,r5,#1
        0x00003f7c:    4285        .B      CMP      r5,r0
        0x00003f7e:    dbfc        ..      BLT      0x3f7a ; _printf_core + 286
        0x00003f80:    9901        ..      LDR      r1,[sp,#4]
        0x00003f82:    5d49        I]      LDRB     r1,[r1,r5]
        0x00003f84:    2900        .)      CMP      r1,#0
        0x00003f86:    d1f8        ..      BNE      0x3f7a ; _printf_core + 286
        0x00003f88:    1976        v.      ADDS     r6,r6,r5
        0x00003f8a:    e007        ..      B        0x3f9c ; _printf_core + 320
        0x00003f8c:    9801        ..      LDR      r0,[sp,#4]
        0x00003f8e:    9901        ..      LDR      r1,[sp,#4]
        0x00003f90:    7800        .x      LDRB     r0,[r0,#0]
        0x00003f92:    1c49        I.      ADDS     r1,r1,#1
        0x00003f94:    9101        ..      STR      r1,[sp,#4]
        0x00003f96:    9a12        ..      LDR      r2,[sp,#0x48]
        0x00003f98:    9911        ..      LDR      r1,[sp,#0x44]
        0x00003f9a:    4790        .G      BLX      r2
        0x00003f9c:    1e6d        m.      SUBS     r5,r5,#1
        0x00003f9e:    d2f5        ..      BCS      0x3f8c ; _printf_core + 304
        0x00003fa0:    e0b2        ..      B        0x4108 ; _printf_core + 684
        0x00003fa2:    200a        .       MOVS     r0,#0xa
        0x00003fa4:    9002        ..      STR      r0,[sp,#8]
        0x00003fa6:    2100        .!      MOVS     r1,#0
        0x00003fa8:    0268        h.      LSLS     r0,r5,#9
        0x00003faa:    0f40        @.      LSRS     r0,r0,#29
        0x00003fac:    9103        ..      STR      r1,[sp,#0xc]
        0x00003fae:    2802        .(      CMP      r0,#2
        0x00003fb0:    d00c        ..      BEQ      0x3fcc ; _printf_core + 368
        0x00003fb2:    cf01        ..      LDM      r7!,{r0}
        0x00003fb4:    17c1        ..      ASRS     r1,r0,#31
        0x00003fb6:    4684        .F      MOV      r12,r0
        0x00003fb8:    2900        .)      CMP      r1,#0
        0x00003fba:    da0d        ..      BGE      0x3fd8 ; _printf_core + 380
        0x00003fbc:    4662        bF      MOV      r2,r12
        0x00003fbe:    4608        .F      MOV      r0,r1
        0x00003fc0:    4252        RB      RSBS     r2,r2,#0
        0x00003fc2:    2100        .!      MOVS     r1,#0
        0x00003fc4:    4181        .A      SBCS     r1,r1,r0
        0x00003fc6:    4694        .F      MOV      r12,r2
        0x00003fc8:    202d        -       MOVS     r0,#0x2d
        0x00003fca:    e008        ..      B        0x3fde ; _printf_core + 386
        0x00003fcc:    1dff        ..      ADDS     r7,r7,#7
        0x00003fce:    08ff        ..      LSRS     r7,r7,#3
        0x00003fd0:    00ff        ..      LSLS     r7,r7,#3
        0x00003fd2:    cf03        ..      LDM      r7!,{r0,r1}
        0x00003fd4:    4684        .F      MOV      r12,r0
        0x00003fd6:    e7ef        ..      B        0x3fb8 ; _printf_core + 348
        0x00003fd8:    0528        (.      LSLS     r0,r5,#20
        0x00003fda:    d504        ..      BPL      0x3fe6 ; _printf_core + 394
        0x00003fdc:    202b        +       MOVS     r0,#0x2b
        0x00003fde:    466a        jF      MOV      r2,sp
        0x00003fe0:    7410        .t      STRB     r0,[r2,#0x10]
        0x00003fe2:    2001        .       MOVS     r0,#1
        0x00003fe4:    e03c        <.      B        0x4060 ; _printf_core + 516
        0x00003fe6:    07e8        ..      LSLS     r0,r5,#31
        0x00003fe8:    d03a        :.      BEQ      0x4060 ; _printf_core + 516
        0x00003fea:    2020                MOVS     r0,#0x20
        0x00003fec:    e7f7        ..      B        0x3fde ; _printf_core + 386
        0x00003fee:    200a        .       MOVS     r0,#0xa
        0x00003ff0:    e000        ..      B        0x3ff4 ; _printf_core + 408
        0x00003ff2:    2010        .       MOVS     r0,#0x10
        0x00003ff4:    2100        .!      MOVS     r1,#0
        0x00003ff6:    9103        ..      STR      r1,[sp,#0xc]
        0x00003ff8:    9002        ..      STR      r0,[sp,#8]
        0x00003ffa:    e007        ..      B        0x400c ; _printf_core + 432
        0x00003ffc:    2010        .       MOVS     r0,#0x10
        0x00003ffe:    9002        ..      STR      r0,[sp,#8]
        0x00004000:    2100        .!      MOVS     r1,#0
        0x00004002:    2004        .       MOVS     r0,#4
        0x00004004:    4305        .C      ORRS     r5,r5,r0
        0x00004006:    2008        .       MOVS     r0,#8
        0x00004008:    9103        ..      STR      r1,[sp,#0xc]
        0x0000400a:    9000        ..      STR      r0,[sp,#0]
        0x0000400c:    0268        h.      LSLS     r0,r5,#9
        0x0000400e:    0f40        @.      LSRS     r0,r0,#29
        0x00004010:    2802        .(      CMP      r0,#2
        0x00004012:    d010        ..      BEQ      0x4036 ; _printf_core + 474
        0x00004014:    cf01        ..      LDM      r7!,{r0}
        0x00004016:    2100        .!      MOVS     r1,#0
        0x00004018:    4684        .F      MOV      r12,r0
        0x0000401a:    2000        .       MOVS     r0,#0
        0x0000401c:    900d        ..      STR      r0,[sp,#0x34]
        0x0000401e:    0728        (.      LSLS     r0,r5,#28
        0x00004020:    d51f        ..      BPL      0x4062 ; _printf_core + 518
        0x00004022:    4670        pF      MOV      r0,lr
        0x00004024:    2870        p(      CMP      r0,#0x70
        0x00004026:    d00c        ..      BEQ      0x4042 ; _printf_core + 486
        0x00004028:    9a02        ..      LDR      r2,[sp,#8]
        0x0000402a:    2010        .       MOVS     r0,#0x10
        0x0000402c:    9b03        ..      LDR      r3,[sp,#0xc]
        0x0000402e:    4042        B@      EORS     r2,r2,r0
        0x00004030:    431a        .C      ORRS     r2,r2,r3
        0x00004032:    d00c        ..      BEQ      0x404e ; _printf_core + 498
        0x00004034:    e015        ..      B        0x4062 ; _printf_core + 518
        0x00004036:    1dff        ..      ADDS     r7,r7,#7
        0x00004038:    08ff        ..      LSRS     r7,r7,#3
        0x0000403a:    00ff        ..      LSLS     r7,r7,#3
        0x0000403c:    cf03        ..      LDM      r7!,{r0,r1}
        0x0000403e:    4684        .F      MOV      r12,r0
        0x00004040:    e7eb        ..      B        0x401a ; _printf_core + 446
        0x00004042:    2040        @       MOVS     r0,#0x40
        0x00004044:    466a        jF      MOV      r2,sp
        0x00004046:    7410        .t      STRB     r0,[r2,#0x10]
        0x00004048:    2001        .       MOVS     r0,#1
        0x0000404a:    900d        ..      STR      r0,[sp,#0x34]
        0x0000404c:    e00c        ..      B        0x4068 ; _printf_core + 524
        0x0000404e:    4660        `F      MOV      r0,r12
        0x00004050:    4308        .C      ORRS     r0,r0,r1
        0x00004052:    d006        ..      BEQ      0x4062 ; _printf_core + 518
        0x00004054:    2030        0       MOVS     r0,#0x30
        0x00004056:    466a        jF      MOV      r2,sp
        0x00004058:    7410        .t      STRB     r0,[r2,#0x10]
        0x0000405a:    4670        pF      MOV      r0,lr
        0x0000405c:    7450        Pt      STRB     r0,[r2,#0x11]
        0x0000405e:    2002        .       MOVS     r0,#2
        0x00004060:    900d        ..      STR      r0,[sp,#0x34]
        0x00004062:    4670        pF      MOV      r0,lr
        0x00004064:    2858        X(      CMP      r0,#0x58
        0x00004066:    d004        ..      BEQ      0x4072 ; _printf_core + 534
        0x00004068:    a029        ).      ADR      r0,{pc}+0xa8 ; 0x4110
        0x0000406a:    9001        ..      STR      r0,[sp,#4]
        0x0000406c:    a80d        ..      ADD      r0,sp,#0x34
        0x0000406e:    900e        ..      STR      r0,[sp,#0x38]
        0x00004070:    e00d        ..      B        0x408e ; _printf_core + 562
        0x00004072:    a02c        ,.      ADR      r0,{pc}+0xb2 ; 0x4124
        0x00004074:    e7f9        ..      B        0x406a ; _printf_core + 526
        0x00004076:    4660        `F      MOV      r0,r12
        0x00004078:    9b03        ..      LDR      r3,[sp,#0xc]
        0x0000407a:    9a02        ..      LDR      r2,[sp,#8]
        0x0000407c:    f7fffe5c    ..\.    BL       __aeabi_uldivmod ; 0x3d38
        0x00004080:    9b01        ..      LDR      r3,[sp,#4]
        0x00004082:    4684        .F      MOV      r12,r0
        0x00004084:    5c9b        .\      LDRB     r3,[r3,r2]
        0x00004086:    9a0e        ..      LDR      r2,[sp,#0x38]
        0x00004088:    1e52        R.      SUBS     r2,r2,#1
        0x0000408a:    920e        ..      STR      r2,[sp,#0x38]
        0x0000408c:    7013        .p      STRB     r3,[r2,#0]
        0x0000408e:    4660        `F      MOV      r0,r12
        0x00004090:    4308        .C      ORRS     r0,r0,r1
        0x00004092:    d1f0        ..      BNE      0x4076 ; _printf_core + 538
        0x00004094:    980e        ..      LDR      r0,[sp,#0x38]
        0x00004096:    a905        ..      ADD      r1,sp,#0x14
        0x00004098:    1a08        ..      SUBS     r0,r1,r0
        0x0000409a:    3020         0      ADDS     r0,r0,#0x20
        0x0000409c:    9001        ..      STR      r0,[sp,#4]
        0x0000409e:    0768        h.      LSLS     r0,r5,#29
        0x000040a0:    d501        ..      BPL      0x40a6 ; _printf_core + 586
        0x000040a2:    9800        ..      LDR      r0,[sp,#0]
        0x000040a4:    e001        ..      B        0x40aa ; _printf_core + 590
        0x000040a6:    2001        .       MOVS     r0,#1
        0x000040a8:    9000        ..      STR      r0,[sp,#0]
        0x000040aa:    9901        ..      LDR      r1,[sp,#4]
        0x000040ac:    4288        .B      CMP      r0,r1
        0x000040ae:    dd03        ..      BLE      0x40b8 ; _printf_core + 604
        0x000040b0:    4601        .F      MOV      r1,r0
        0x000040b2:    9801        ..      LDR      r0,[sp,#4]
        0x000040b4:    1a08        ..      SUBS     r0,r1,r0
        0x000040b6:    e000        ..      B        0x40ba ; _printf_core + 606
        0x000040b8:    2000        .       MOVS     r0,#0
        0x000040ba:    2500        .%      MOVS     r5,#0
        0x000040bc:    9000        ..      STR      r0,[sp,#0]
        0x000040be:    e006        ..      B        0x40ce ; _printf_core + 626
        0x000040c0:    a804        ..      ADD      r0,sp,#0x10
        0x000040c2:    9a12        ..      LDR      r2,[sp,#0x48]
        0x000040c4:    5d40        @]      LDRB     r0,[r0,r5]
        0x000040c6:    9911        ..      LDR      r1,[sp,#0x44]
        0x000040c8:    4790        .G      BLX      r2
        0x000040ca:    1c6d        m.      ADDS     r5,r5,#1
        0x000040cc:    1c76        v.      ADDS     r6,r6,#1
        0x000040ce:    980d        ..      LDR      r0,[sp,#0x34]
        0x000040d0:    4285        .B      CMP      r5,r0
        0x000040d2:    dbf5        ..      BLT      0x40c0 ; _printf_core + 612
        0x000040d4:    e004        ..      B        0x40e0 ; _printf_core + 644
        0x000040d6:    9a12        ..      LDR      r2,[sp,#0x48]
        0x000040d8:    2030        0       MOVS     r0,#0x30
        0x000040da:    9911        ..      LDR      r1,[sp,#0x44]
        0x000040dc:    4790        .G      BLX      r2
        0x000040de:    1c76        v.      ADDS     r6,r6,#1
        0x000040e0:    9900        ..      LDR      r1,[sp,#0]
        0x000040e2:    1e48        H.      SUBS     r0,r1,#1
        0x000040e4:    9000        ..      STR      r0,[sp,#0]
        0x000040e6:    2900        .)      CMP      r1,#0
        0x000040e8:    dcf5        ..      BGT      0x40d6 ; _printf_core + 634
        0x000040ea:    e008        ..      B        0x40fe ; _printf_core + 674
        0x000040ec:    980e        ..      LDR      r0,[sp,#0x38]
        0x000040ee:    990e        ..      LDR      r1,[sp,#0x38]
        0x000040f0:    7800        .x      LDRB     r0,[r0,#0]
        0x000040f2:    1c49        I.      ADDS     r1,r1,#1
        0x000040f4:    910e        ..      STR      r1,[sp,#0x38]
        0x000040f6:    9a12        ..      LDR      r2,[sp,#0x48]
        0x000040f8:    9911        ..      LDR      r1,[sp,#0x44]
        0x000040fa:    4790        .G      BLX      r2
        0x000040fc:    1c76        v.      ADDS     r6,r6,#1
        0x000040fe:    9901        ..      LDR      r1,[sp,#4]
        0x00004100:    1e48        H.      SUBS     r0,r1,#1
        0x00004102:    9001        ..      STR      r0,[sp,#4]
        0x00004104:    2900        .)      CMP      r1,#0
        0x00004106:    dcf1        ..      BGT      0x40ec ; _printf_core + 656
        0x00004108:    1c64        d.      ADDS     r4,r4,#1
        0x0000410a:    e6b4        ..      B        0x3e76 ; _printf_core + 26
    $d
        0x0000410c:    00012809    .(..    DCD    75785
        0x00004110:    33323130    0123    DCD    858927408
        0x00004114:    37363534    4567    DCD    926299444
        0x00004118:    62613938    89ab    DCD    1650538808
        0x0000411c:    66656463    cdef    DCD    1717920867
        0x00004120:    00000000    ....    DCD    0
        0x00004124:    33323130    0123    DCD    858927408
        0x00004128:    37363534    4567    DCD    926299444
        0x0000412c:    42413938    89AB    DCD    1111570744
        0x00004130:    46454443    CDEF    DCD    1178944579
        0x00004134:    00000000    ....    DCD    0
    $d.realdata
    .constdata
    gau32ClkSrcTbl
        0x00004138:    00b71b00    ....    DCD    12000000
        0x0000413c:    00008000    ....    DCD    32768
        0x00004140:    0448e000    ..H.    DCD    71884800
        0x00004144:    00002710    .'..    DCD    10000
        0x00004148:    02dc6c00    .l..    DCD    48000000
        0x0000414c:    00000000    ....    DCD    0
        0x00004150:    00000000    ....    DCD    0
        0x00004154:    01518000    ..Q.    DCD    22118400
    .constdata
        0x00004158:    00000000    ....    DCD    0
        0x0000415c:    00000004    ....    DCD    4
        0x00004160:    0000000c    ....    DCD    12
        0x00004164:    00000024    $...    DCD    36
        0x00004168:    00000000    ....    DCD    0
        0x0000416c:    00000020     ...    DCD    32
        0x00004170:    00000000    ....    DCD    0
        0x00004174:    00000004    ....    DCD    4
        0x00004178:    0000002c    ,...    DCD    44
        0x0000417c:    00000000    ....    DCD    0
        0x00004180:    00000004    ....    DCD    4
        0x00004184:    0000002c    ,...    DCD    44
    .constdata
        0x00004188:    00b71b00    ....    DCD    12000000
        0x0000418c:    00000000    ....    DCD    0
        0x00004190:    00008000    ....    DCD    32768
        0x00004194:    01518000    ..Q.    DCD    22118400
        0x00004198:    00b71b00    ....    DCD    12000000
        0x0000419c:    00000000    ....    DCD    0
        0x000041a0:    00008000    ....    DCD    32768
        0x000041a4:    01518000    ..Q.    DCD    22118400
        0x000041a8:    00b71b00    ....    DCD    12000000
        0x000041ac:    00000000    ....    DCD    0
        0x000041b0:    00008000    ....    DCD    32768
        0x000041b4:    01518000    ..Q.    DCD    22118400
    Region$$Table$$Base
        0x000041b8:    000041d8    .A..    DCD    16856
        0x000041bc:    20000000    ...     DCD    536870912
        0x000041c0:    00000080    ....    DCD    128
        0x000041c4:    00003e3c    <>..    DCD    15932
        0x000041c8:    00004258    XB..    DCD    16984
        0x000041cc:    20000080    ...     DCD    536871040
        0x000041d0:    00001930    0...    DCD    6448
        0x000041d4:    00003e4c    L>..    DCD    15948
    Region$$Table$$Limit

** Section #2 'ER_RW' (SHT_PROGBITS) [SHF_ALLOC + SHF_WRITE]
    Size   : 128 bytes (alignment 4)
    Address: 0x20000000


** Section #3 'ER_ZI' (SHT_NOBITS) [SHF_ALLOC + SHF_WRITE]
    Size   : 6448 bytes (alignment 8)
    Address: 0x20000080


** Section #4 '.debug_abbrev' (SHT_PROGBITS)
    Size   : 1476 bytes


** Section #5 '.debug_frame' (SHT_PROGBITS)
    Size   : 6252 bytes


** Section #6 '.debug_info' (SHT_PROGBITS)
    Size   : 58500 bytes


** Section #7 '.debug_line' (SHT_PROGBITS)
    Size   : 17876 bytes


** Section #8 '.debug_loc' (SHT_PROGBITS)
    Size   : 21584 bytes


** Section #9 '.debug_macinfo' (SHT_PROGBITS)
    Size   : 459980 bytes


** Section #10 '.debug_pubnames' (SHT_PROGBITS)
    Size   : 4447 bytes


** Section #11 '.symtab' (SHT_SYMTAB)
    Size   : 9168 bytes (alignment 4)
    String table #12 '.strtab'
    Last local symbol no. 271


** Section #12 '.strtab' (SHT_STRTAB)
    Size   : 9060 bytes


** Section #13 '.note' (SHT_NOTE)
    Size   : 28 bytes (alignment 4)


** Section #14 '.comment' (SHT_PROGBITS)
    Size   : 18460 bytes


** Section #15 '.shstrtab' (SHT_STRTAB)
    Size   : 156 bytes


